SF:/Volumes/Everything/Development/openrouter_api/src/api/analytics.rs
FN:92,_RNvMNtNtCsgl6iEIT30H0_14openrouter_api3api9analyticsNtB2_12AnalyticsApi12get_activity
FN:237,_RNvMNtNtCsgl6iEIT30H0_14openrouter_api3api9analyticsNtB2_12AnalyticsApi19get_recent_activity
FN:291,_RNvMNtNtCsgl6iEIT30H0_14openrouter_api3api9analyticsNtB2_12AnalyticsApi21get_activity_by_model
FN:349,_RNvMNtNtCsgl6iEIT30H0_14openrouter_api3api9analyticsNtB2_12AnalyticsApi24get_activity_by_provider
FN:196,_RNvMNtNtCsgl6iEIT30H0_14openrouter_api3api9analyticsNtB2_12AnalyticsApi26get_activity_by_date_range
FN:17,_RNvMNtNtCsgl6iEIT30H0_14openrouter_api3api9analyticsNtB2_12AnalyticsApi3new
FN:377,_RNvNtNtNtCsgYtBEIaUujk_14openrouter_api3api9analytics5testss_22test_analytics_api_new
FN:403,_RNvNtNtNtCsgYtBEIaUujk_14openrouter_api3api9analytics5testss_29test_activity_request_builder
FN:425,_RNvNtNtNtCsgYtBEIaUujk_14openrouter_api3api9analytics5testss_29test_query_parameter_encoding
FN:103,_RNCNCNvMNtNtCsgYtBEIaUujk_14openrouter_api3api9analyticsNtB6_12AnalyticsApi12get_activity00Ba_
FN:146,_RNCNCNvMNtNtCsgYtBEIaUujk_14openrouter_api3api9analyticsNtB6_12AnalyticsApi12get_activity0s_0Ba_
FN:92,_RNCNvMNtNtCsgYtBEIaUujk_14openrouter_api3api9analyticsNtB4_12AnalyticsApi12get_activity0B8_
FN:237,_RNCNvMNtNtCsgYtBEIaUujk_14openrouter_api3api9analyticsNtB4_12AnalyticsApi19get_recent_activity0B8_
FN:296,_RNCNvMNtNtCsgYtBEIaUujk_14openrouter_api3api9analyticsNtB4_12AnalyticsApi21get_activity_by_model0B8_
FN:354,_RNCNvMNtNtCsgYtBEIaUujk_14openrouter_api3api9analyticsNtB4_12AnalyticsApi24get_activity_by_provider0B8_
FN:200,_RNCNvMNtNtCsgYtBEIaUujk_14openrouter_api3api9analyticsNtB4_12AnalyticsApi26get_activity_by_date_range0B8_
FN:92,_RNvMNtNtCsgYtBEIaUujk_14openrouter_api3api9analyticsNtB2_12AnalyticsApi12get_activity
FN:237,_RNvMNtNtCsgYtBEIaUujk_14openrouter_api3api9analyticsNtB2_12AnalyticsApi19get_recent_activity
FN:291,_RNvMNtNtCsgYtBEIaUujk_14openrouter_api3api9analyticsNtB2_12AnalyticsApi21get_activity_by_model
FN:349,_RNvMNtNtCsgYtBEIaUujk_14openrouter_api3api9analyticsNtB2_12AnalyticsApi24get_activity_by_provider
FN:196,_RNvMNtNtCsgYtBEIaUujk_14openrouter_api3api9analyticsNtB2_12AnalyticsApi26get_activity_by_date_range
FN:17,_RNvMNtNtCsgYtBEIaUujk_14openrouter_api3api9analyticsNtB2_12AnalyticsApi3new
FNDA:0,_RNvMNtNtCsgl6iEIT30H0_14openrouter_api3api9analyticsNtB2_12AnalyticsApi12get_activity
FNDA:0,_RNvMNtNtCsgl6iEIT30H0_14openrouter_api3api9analyticsNtB2_12AnalyticsApi19get_recent_activity
FNDA:0,_RNvMNtNtCsgl6iEIT30H0_14openrouter_api3api9analyticsNtB2_12AnalyticsApi21get_activity_by_model
FNDA:0,_RNvMNtNtCsgl6iEIT30H0_14openrouter_api3api9analyticsNtB2_12AnalyticsApi24get_activity_by_provider
FNDA:0,_RNvMNtNtCsgl6iEIT30H0_14openrouter_api3api9analyticsNtB2_12AnalyticsApi26get_activity_by_date_range
FNDA:0,_RNvMNtNtCsgl6iEIT30H0_14openrouter_api3api9analyticsNtB2_12AnalyticsApi3new
FNDA:1,_RNvNtNtNtCsgYtBEIaUujk_14openrouter_api3api9analytics5testss_22test_analytics_api_new
FNDA:1,_RNvNtNtNtCsgYtBEIaUujk_14openrouter_api3api9analytics5testss_29test_activity_request_builder
FNDA:1,_RNvNtNtNtCsgYtBEIaUujk_14openrouter_api3api9analytics5testss_29test_query_parameter_encoding
FNDA:0,_RNCNCNvMNtNtCsgYtBEIaUujk_14openrouter_api3api9analyticsNtB6_12AnalyticsApi12get_activity00Ba_
FNDA:0,_RNCNCNvMNtNtCsgYtBEIaUujk_14openrouter_api3api9analyticsNtB6_12AnalyticsApi12get_activity0s_0Ba_
FNDA:0,_RNCNvMNtNtCsgYtBEIaUujk_14openrouter_api3api9analyticsNtB4_12AnalyticsApi12get_activity0B8_
FNDA:0,_RNCNvMNtNtCsgYtBEIaUujk_14openrouter_api3api9analyticsNtB4_12AnalyticsApi19get_recent_activity0B8_
FNDA:0,_RNCNvMNtNtCsgYtBEIaUujk_14openrouter_api3api9analyticsNtB4_12AnalyticsApi21get_activity_by_model0B8_
FNDA:0,_RNCNvMNtNtCsgYtBEIaUujk_14openrouter_api3api9analyticsNtB4_12AnalyticsApi24get_activity_by_provider0B8_
FNDA:0,_RNCNvMNtNtCsgYtBEIaUujk_14openrouter_api3api9analyticsNtB4_12AnalyticsApi26get_activity_by_date_range0B8_
FNDA:0,_RNvMNtNtCsgYtBEIaUujk_14openrouter_api3api9analyticsNtB2_12AnalyticsApi12get_activity
FNDA:0,_RNvMNtNtCsgYtBEIaUujk_14openrouter_api3api9analyticsNtB2_12AnalyticsApi19get_recent_activity
FNDA:0,_RNvMNtNtCsgYtBEIaUujk_14openrouter_api3api9analyticsNtB2_12AnalyticsApi21get_activity_by_model
FNDA:0,_RNvMNtNtCsgYtBEIaUujk_14openrouter_api3api9analyticsNtB2_12AnalyticsApi24get_activity_by_provider
FNDA:0,_RNvMNtNtCsgYtBEIaUujk_14openrouter_api3api9analyticsNtB2_12AnalyticsApi26get_activity_by_date_range
FNDA:3,_RNvMNtNtCsgYtBEIaUujk_14openrouter_api3api9analyticsNtB2_12AnalyticsApi3new
FNF:16
FNH:4
DA:17,3
DA:19,3
DA:20,3
DA:22,3
DA:92,0
DA:94,0
DA:97,0
DA:98,0
DA:99,0
DA:100,0
DA:101,0
DA:103,0
DA:104,0
DA:105,0
DA:108,0
DA:110,0
DA:111,0
DA:112,0
DA:114,0
DA:115,0
DA:116,0
DA:118,0
DA:119,0
DA:120,0
DA:122,0
DA:123,0
DA:124,0
DA:126,0
DA:127,0
DA:128,0
DA:130,0
DA:131,0
DA:132,0
DA:134,0
DA:135,0
DA:136,0
DA:138,0
DA:139,0
DA:140,0
DA:143,0
DA:146,0
DA:147,0
DA:150,0
DA:151,0
DA:152,0
DA:154,0
DA:155,0
DA:156,0
DA:159,0
DA:160,0
DA:196,0
DA:197,0
DA:198,0
DA:199,0
DA:200,0
DA:201,0
DA:202,0
DA:203,0
DA:204,0
DA:205,0
DA:207,0
DA:208,0
DA:237,0
DA:239,0
DA:240,0
DA:241,0
DA:242,0
DA:243,0
DA:245,0
DA:246,0
DA:247,0
DA:248,0
DA:249,0
DA:250,0
DA:252,0
DA:253,0
DA:291,0
DA:292,0
DA:293,0
DA:294,0
DA:295,0
DA:296,0
DA:297,0
DA:298,0
DA:299,0
DA:300,0
DA:302,0
DA:303,0
DA:304,0
DA:306,0
DA:307,0
DA:308,0
DA:310,0
DA:311,0
DA:349,0
DA:350,0
DA:351,0
DA:352,0
DA:353,0
DA:354,0
DA:355,0
DA:356,0
DA:357,0
DA:358,0
DA:360,0
DA:361,0
DA:362,0
DA:364,0
DA:365,0
DA:366,0
DA:368,0
DA:369,0
DA:377,1
DA:382,1
DA:383,1
DA:384,1
DA:385,1
DA:386,1
DA:387,1
DA:388,1
DA:389,1
DA:390,1
DA:391,1
DA:393,1
DA:394,1
DA:398,1
DA:399,1
DA:400,1
DA:403,1
DA:404,1
DA:405,1
DA:406,1
DA:407,1
DA:408,1
DA:409,1
DA:410,1
DA:411,1
DA:412,1
DA:414,1
DA:415,1
DA:416,1
DA:417,1
DA:418,1
DA:419,1
DA:420,1
DA:421,1
DA:422,1
DA:425,1
DA:427,1
DA:428,1
DA:429,1
DA:431,1
DA:432,1
DA:434,1
DA:436,1
DA:437,1
BRF:0
BRH:0
LF:163
LH:48
end_of_record
SF:/Volumes/Everything/Development/openrouter_api/src/api/chat.rs
FN:170,_RNCNCNCNvMNtNtCsgl6iEIT30H0_14openrouter_api3api4chatNtB8_7ChatApi22chat_completion_streams2_0s_00Bc_
FN:160,_RNCNCNvMNtNtCsgl6iEIT30H0_14openrouter_api3api4chatNtB6_7ChatApi22chat_completion_streams2_00Ba_
FN:182,_RNCNCNvMNtNtCsgl6iEIT30H0_14openrouter_api3api4chatNtB6_7ChatApi22chat_completion_streams2_0s0_0Ba_
FN:203,_RNCNCNvMNtNtCsgl6iEIT30H0_14openrouter_api3api4chatNtB6_7ChatApi22chat_completion_streams2_0s1_0Ba_
FN:168,_RNCNCNvMNtNtCsgl6iEIT30H0_14openrouter_api3api4chatNtB6_7ChatApi22chat_completion_streams2_0s_0Ba_
FN:110,_RNCNvMNtNtCsgl6iEIT30H0_14openrouter_api3api4chatNtB4_7ChatApi22chat_completion_stream0B8_
FN:125,_RNCNvMNtNtCsgl6iEIT30H0_14openrouter_api3api4chatNtB4_7ChatApi22chat_completion_streams0_0B8_
FN:139,_RNCNvMNtNtCsgl6iEIT30H0_14openrouter_api3api4chatNtB4_7ChatApi22chat_completion_streams1_0B8_
FN:114,_RNCNvMNtNtCsgl6iEIT30H0_14openrouter_api3api4chatNtB4_7ChatApi22chat_completion_streams_0B8_
FN:45,_RNvMNtNtCsgl6iEIT30H0_14openrouter_api3api4chatNtB2_7ChatApi15chat_completion
FN:259,_RNvMNtNtCsgl6iEIT30H0_14openrouter_api3api4chatNtB2_7ChatApi17simple_completion
FN:100,_RNvMNtNtCsgl6iEIT30H0_14openrouter_api3api4chatNtB2_7ChatApi22chat_completion_stream
FN:37,_RNvMNtNtCsgl6iEIT30H0_14openrouter_api3api4chatNtB2_7ChatApi3new
FN:170,_RNCNCNCNvMNtNtCsgYtBEIaUujk_14openrouter_api3api4chatNtB8_7ChatApi22chat_completion_streams2_0s_00Bc_
FN:60,_RNCNCNvMNtNtCsgYtBEIaUujk_14openrouter_api3api4chatNtB6_7ChatApi15chat_completion00Ba_
FN:69,_RNCNCNvMNtNtCsgYtBEIaUujk_14openrouter_api3api4chatNtB6_7ChatApi15chat_completion0s_0Ba_
FN:160,_RNCNCNvMNtNtCsgYtBEIaUujk_14openrouter_api3api4chatNtB6_7ChatApi22chat_completion_streams2_00Ba_
FN:182,_RNCNCNvMNtNtCsgYtBEIaUujk_14openrouter_api3api4chatNtB6_7ChatApi22chat_completion_streams2_0s0_0Ba_
FN:203,_RNCNCNvMNtNtCsgYtBEIaUujk_14openrouter_api3api4chatNtB6_7ChatApi22chat_completion_streams2_0s1_0Ba_
FN:168,_RNCNCNvMNtNtCsgYtBEIaUujk_14openrouter_api3api4chatNtB6_7ChatApi22chat_completion_streams2_0s_0Ba_
FN:48,_RNCNvMNtNtCsgYtBEIaUujk_14openrouter_api3api4chatNtB4_7ChatApi15chat_completion0B8_
FN:259,_RNCNvMNtNtCsgYtBEIaUujk_14openrouter_api3api4chatNtB4_7ChatApi17simple_completion0B8_
FN:110,_RNCNvMNtNtCsgYtBEIaUujk_14openrouter_api3api4chatNtB4_7ChatApi22chat_completion_stream0B8_
FN:125,_RNCNvMNtNtCsgYtBEIaUujk_14openrouter_api3api4chatNtB4_7ChatApi22chat_completion_streams0_0B8_
FN:139,_RNCNvMNtNtCsgYtBEIaUujk_14openrouter_api3api4chatNtB4_7ChatApi22chat_completion_streams1_0B8_
FN:114,_RNCNvMNtNtCsgYtBEIaUujk_14openrouter_api3api4chatNtB4_7ChatApi22chat_completion_streams_0B8_
FN:45,_RNvMNtNtCsgYtBEIaUujk_14openrouter_api3api4chatNtB2_7ChatApi15chat_completion
FN:259,_RNvMNtNtCsgYtBEIaUujk_14openrouter_api3api4chatNtB2_7ChatApi17simple_completion
FN:100,_RNvMNtNtCsgYtBEIaUujk_14openrouter_api3api4chatNtB2_7ChatApi22chat_completion_stream
FN:37,_RNvMNtNtCsgYtBEIaUujk_14openrouter_api3api4chatNtB2_7ChatApi3new
FNDA:0,_RNCNCNCNvMNtNtCsgl6iEIT30H0_14openrouter_api3api4chatNtB8_7ChatApi22chat_completion_streams2_0s_00Bc_
FNDA:0,_RNCNCNvMNtNtCsgl6iEIT30H0_14openrouter_api3api4chatNtB6_7ChatApi22chat_completion_streams2_00Ba_
FNDA:0,_RNCNCNvMNtNtCsgl6iEIT30H0_14openrouter_api3api4chatNtB6_7ChatApi22chat_completion_streams2_0s0_0Ba_
FNDA:0,_RNCNCNvMNtNtCsgl6iEIT30H0_14openrouter_api3api4chatNtB6_7ChatApi22chat_completion_streams2_0s1_0Ba_
FNDA:0,_RNCNCNvMNtNtCsgl6iEIT30H0_14openrouter_api3api4chatNtB6_7ChatApi22chat_completion_streams2_0s_0Ba_
FNDA:0,_RNCNvMNtNtCsgl6iEIT30H0_14openrouter_api3api4chatNtB4_7ChatApi22chat_completion_stream0B8_
FNDA:0,_RNCNvMNtNtCsgl6iEIT30H0_14openrouter_api3api4chatNtB4_7ChatApi22chat_completion_streams0_0B8_
FNDA:0,_RNCNvMNtNtCsgl6iEIT30H0_14openrouter_api3api4chatNtB4_7ChatApi22chat_completion_streams1_0B8_
FNDA:0,_RNCNvMNtNtCsgl6iEIT30H0_14openrouter_api3api4chatNtB4_7ChatApi22chat_completion_streams_0B8_
FNDA:0,_RNvMNtNtCsgl6iEIT30H0_14openrouter_api3api4chatNtB2_7ChatApi15chat_completion
FNDA:0,_RNvMNtNtCsgl6iEIT30H0_14openrouter_api3api4chatNtB2_7ChatApi17simple_completion
FNDA:0,_RNvMNtNtCsgl6iEIT30H0_14openrouter_api3api4chatNtB2_7ChatApi22chat_completion_stream
FNDA:0,_RNvMNtNtCsgl6iEIT30H0_14openrouter_api3api4chatNtB2_7ChatApi3new
FNDA:0,_RNCNCNCNvMNtNtCsgYtBEIaUujk_14openrouter_api3api4chatNtB8_7ChatApi22chat_completion_streams2_0s_00Bc_
FNDA:0,_RNCNCNvMNtNtCsgYtBEIaUujk_14openrouter_api3api4chatNtB6_7ChatApi15chat_completion00Ba_
FNDA:0,_RNCNCNvMNtNtCsgYtBEIaUujk_14openrouter_api3api4chatNtB6_7ChatApi15chat_completion0s_0Ba_
FNDA:0,_RNCNCNvMNtNtCsgYtBEIaUujk_14openrouter_api3api4chatNtB6_7ChatApi22chat_completion_streams2_00Ba_
FNDA:0,_RNCNCNvMNtNtCsgYtBEIaUujk_14openrouter_api3api4chatNtB6_7ChatApi22chat_completion_streams2_0s0_0Ba_
FNDA:0,_RNCNCNvMNtNtCsgYtBEIaUujk_14openrouter_api3api4chatNtB6_7ChatApi22chat_completion_streams2_0s1_0Ba_
FNDA:0,_RNCNCNvMNtNtCsgYtBEIaUujk_14openrouter_api3api4chatNtB6_7ChatApi22chat_completion_streams2_0s_0Ba_
FNDA:0,_RNCNvMNtNtCsgYtBEIaUujk_14openrouter_api3api4chatNtB4_7ChatApi15chat_completion0B8_
FNDA:0,_RNCNvMNtNtCsgYtBEIaUujk_14openrouter_api3api4chatNtB4_7ChatApi17simple_completion0B8_
FNDA:0,_RNCNvMNtNtCsgYtBEIaUujk_14openrouter_api3api4chatNtB4_7ChatApi22chat_completion_stream0B8_
FNDA:0,_RNCNvMNtNtCsgYtBEIaUujk_14openrouter_api3api4chatNtB4_7ChatApi22chat_completion_streams0_0B8_
FNDA:0,_RNCNvMNtNtCsgYtBEIaUujk_14openrouter_api3api4chatNtB4_7ChatApi22chat_completion_streams1_0B8_
FNDA:0,_RNCNvMNtNtCsgYtBEIaUujk_14openrouter_api3api4chatNtB4_7ChatApi22chat_completion_streams_0B8_
FNDA:0,_RNvMNtNtCsgYtBEIaUujk_14openrouter_api3api4chatNtB2_7ChatApi15chat_completion
FNDA:0,_RNvMNtNtCsgYtBEIaUujk_14openrouter_api3api4chatNtB2_7ChatApi17simple_completion
FNDA:0,_RNvMNtNtCsgYtBEIaUujk_14openrouter_api3api4chatNtB2_7ChatApi22chat_completion_stream
FNDA:0,_RNvMNtNtCsgYtBEIaUujk_14openrouter_api3api4chatNtB2_7ChatApi3new
FNF:17
FNH:0
DA:37,0
DA:39,0
DA:40,0
DA:42,0
DA:45,0
DA:46,0
DA:47,0
DA:48,0
DA:50,0
DA:51,0
DA:54,0
DA:55,0
DA:56,0
DA:57,0
DA:58,0
DA:60,0
DA:61,0
DA:62,0
DA:65,0
DA:68,0
DA:69,0
DA:70,0
DA:71,0
DA:72,0
DA:73,0
DA:74,0
DA:75,0
DA:78,0
DA:79,0
DA:82,0
DA:83,0
DA:84,0
DA:85,0
DA:86,0
DA:87,0
DA:88,0
DA:89,0
DA:90,0
DA:92,0
DA:95,0
DA:96,0
DA:100,0
DA:101,0
DA:102,0
DA:103,0
DA:104,0
DA:105,0
DA:106,0
DA:109,0
DA:110,0
DA:111,0
DA:113,0
DA:114,0
DA:115,0
DA:118,0
DA:119,0
DA:122,0
DA:123,0
DA:124,0
DA:125,0
DA:126,0
DA:127,0
DA:128,0
DA:129,0
DA:130,0
DA:131,0
DA:136,0
DA:137,0
DA:138,0
DA:139,0
DA:140,0
DA:141,0
DA:142,0
DA:143,0
DA:144,0
DA:145,0
DA:148,0
DA:152,0
DA:160,0
DA:161,0
DA:162,0
DA:163,0
DA:164,0
DA:165,0
DA:166,0
DA:168,0
DA:170,0
DA:171,0
DA:172,0
DA:174,0
DA:182,0
DA:203,0
DA:255,0
DA:256,0
DA:259,0
DA:260,0
DA:261,0
DA:262,0
DA:263,0
DA:264,0
DA:265,0
DA:266,0
DA:267,0
DA:268,0
DA:269,0
DA:270,0
DA:271,0
DA:272,0
DA:273,0
DA:274,0
DA:275,0
DA:276,0
DA:277,0
DA:278,0
DA:279,0
DA:280,0
DA:281,0
DA:282,0
DA:283,0
DA:284,0
DA:285,0
DA:286,0
DA:287,0
DA:288,0
DA:289,0
DA:290,0
DA:292,0
DA:294,0
DA:295,0
DA:296,0
DA:297,0
DA:298,0
DA:300,0
BRF:0
BRH:0
LF:142
LH:0
end_of_record
SF:/Volumes/Everything/Development/openrouter_api/src/api/completion.rs
FN:27,_RNvMNtNtCsgl6iEIT30H0_14openrouter_api3api10completionNtB2_13CompletionApi15text_completion
FN:18,_RNvMNtNtCsgl6iEIT30H0_14openrouter_api3api10completionNtB2_13CompletionApi3new
FN:38,_RNCNCNvMNtNtCsgYtBEIaUujk_14openrouter_api3api10completionNtB6_13CompletionApi15text_completion00Ba_
FN:47,_RNCNCNvMNtNtCsgYtBEIaUujk_14openrouter_api3api10completionNtB6_13CompletionApi15text_completion0s_0Ba_
FN:27,_RNCNvMNtNtCsgYtBEIaUujk_14openrouter_api3api10completionNtB4_13CompletionApi15text_completion0B8_
FN:27,_RNvMNtNtCsgYtBEIaUujk_14openrouter_api3api10completionNtB2_13CompletionApi15text_completion
FN:18,_RNvMNtNtCsgYtBEIaUujk_14openrouter_api3api10completionNtB2_13CompletionApi3new
FNDA:0,_RNvMNtNtCsgl6iEIT30H0_14openrouter_api3api10completionNtB2_13CompletionApi15text_completion
FNDA:0,_RNvMNtNtCsgl6iEIT30H0_14openrouter_api3api10completionNtB2_13CompletionApi3new
FNDA:0,_RNCNCNvMNtNtCsgYtBEIaUujk_14openrouter_api3api10completionNtB6_13CompletionApi15text_completion00Ba_
FNDA:0,_RNCNCNvMNtNtCsgYtBEIaUujk_14openrouter_api3api10completionNtB6_13CompletionApi15text_completion0s_0Ba_
FNDA:0,_RNCNvMNtNtCsgYtBEIaUujk_14openrouter_api3api10completionNtB4_13CompletionApi15text_completion0B8_
FNDA:0,_RNvMNtNtCsgYtBEIaUujk_14openrouter_api3api10completionNtB2_13CompletionApi15text_completion
FNDA:0,_RNvMNtNtCsgYtBEIaUujk_14openrouter_api3api10completionNtB2_13CompletionApi3new
FNF:5
FNH:0
DA:18,0
DA:20,0
DA:21,0
DA:23,0
DA:27,0
DA:29,0
DA:32,0
DA:33,0
DA:34,0
DA:35,0
DA:36,0
DA:38,0
DA:39,0
DA:40,0
DA:43,0
DA:46,0
DA:47,0
DA:48,0
DA:49,0
DA:50,0
DA:51,0
DA:52,0
DA:53,0
DA:56,0
DA:57,0
BRF:0
BRH:0
LF:28
LH:0
end_of_record
SF:/Volumes/Everything/Development/openrouter_api/src/api/credits.rs
FN:62,_RNvMNtNtCsgl6iEIT30H0_14openrouter_api3api7creditsNtB2_10CreditsApi11get_balance
FN:15,_RNvMNtNtCsgl6iEIT30H0_14openrouter_api3api7creditsNtB2_10CreditsApi3new
FN:15,_RNvMNtNtCsgYtBEIaUujk_14openrouter_api3api7creditsNtB2_10CreditsApi3new
FN:70,_RNCNCNvMNtNtCsgYtBEIaUujk_14openrouter_api3api7creditsNtB6_10CreditsApi11get_balance00Ba_
FN:78,_RNCNCNvMNtNtCsgYtBEIaUujk_14openrouter_api3api7creditsNtB6_10CreditsApi11get_balance0s_0Ba_
FN:62,_RNCNvMNtNtCsgYtBEIaUujk_14openrouter_api3api7creditsNtB4_10CreditsApi11get_balance0B8_
FN:62,_RNvMNtNtCsgYtBEIaUujk_14openrouter_api3api7creditsNtB2_10CreditsApi11get_balance
FN:93,_RNvNtNtNtCsgYtBEIaUujk_14openrouter_api3api7credits5testss_20test_credits_api_new
FNDA:0,_RNvMNtNtCsgl6iEIT30H0_14openrouter_api3api7creditsNtB2_10CreditsApi11get_balance
FNDA:0,_RNvMNtNtCsgl6iEIT30H0_14openrouter_api3api7creditsNtB2_10CreditsApi3new
FNDA:2,_RNvMNtNtCsgYtBEIaUujk_14openrouter_api3api7creditsNtB2_10CreditsApi3new
FNDA:0,_RNCNCNvMNtNtCsgYtBEIaUujk_14openrouter_api3api7creditsNtB6_10CreditsApi11get_balance00Ba_
FNDA:0,_RNCNCNvMNtNtCsgYtBEIaUujk_14openrouter_api3api7creditsNtB6_10CreditsApi11get_balance0s_0Ba_
FNDA:0,_RNCNvMNtNtCsgYtBEIaUujk_14openrouter_api3api7creditsNtB4_10CreditsApi11get_balance0B8_
FNDA:0,_RNvMNtNtCsgYtBEIaUujk_14openrouter_api3api7creditsNtB2_10CreditsApi11get_balance
FNDA:1,_RNvNtNtNtCsgYtBEIaUujk_14openrouter_api3api7credits5testss_20test_credits_api_new
FNF:6
FNH:2
DA:15,2
DA:17,2
DA:18,2
DA:20,2
DA:62,0
DA:64,0
DA:65,0
DA:66,0
DA:67,0
DA:68,0
DA:70,0
DA:71,0
DA:72,0
DA:75,0
DA:78,0
DA:79,0
DA:80,0
DA:81,0
DA:84,0
DA:85,0
DA:93,1
DA:98,1
DA:99,1
DA:100,1
DA:101,1
DA:102,1
DA:103,1
DA:104,1
DA:105,1
DA:106,1
DA:107,1
DA:109,1
DA:110,1
DA:114,1
DA:115,1
DA:116,1
BRF:0
BRH:0
LF:39
LH:20
end_of_record
SF:/Volumes/Everything/Development/openrouter_api/src/api/generation.rs
FN:89,_RNvMNtNtCsgl6iEIT30H0_14openrouter_api3api10generationNtB2_13GenerationApi14get_generation
FN:18,_RNvMNtNtCsgl6iEIT30H0_14openrouter_api3api10generationNtB2_13GenerationApi3new
FN:177,_RNCNvNtNtNtCsgYtBEIaUujk_14openrouter_api3api10generation5testss_29test_generation_id_validation0B9_
FN:185,_RNCNvNtNtNtCsgYtBEIaUujk_14openrouter_api3api10generation5testss_29test_generation_id_validations0_0B9_
FN:181,_RNCNvNtNtNtCsgYtBEIaUujk_14openrouter_api3api10generation5testss_29test_generation_id_validations_0B9_
FN:89,_RNvMNtNtCsgYtBEIaUujk_14openrouter_api3api10generationNtB2_13GenerationApi14get_generation
FN:18,_RNvMNtNtCsgYtBEIaUujk_14openrouter_api3api10generationNtB2_13GenerationApi3new
FN:104,_RNCNCNvMNtNtCsgYtBEIaUujk_14openrouter_api3api10generationNtB6_13GenerationApi14get_generation00Ba_
FN:113,_RNCNCNvMNtNtCsgYtBEIaUujk_14openrouter_api3api10generationNtB6_13GenerationApi14get_generation0s_0Ba_
FN:89,_RNCNvMNtNtCsgYtBEIaUujk_14openrouter_api3api10generationNtB4_13GenerationApi14get_generation0B8_
FN:131,_RNvNtNtNtCsgYtBEIaUujk_14openrouter_api3api10generation5testss_23test_generation_api_new
FN:157,_RNvNtNtNtCsgYtBEIaUujk_14openrouter_api3api10generation5testss_29test_generation_id_validation
FNDA:0,_RNvMNtNtCsgl6iEIT30H0_14openrouter_api3api10generationNtB2_13GenerationApi14get_generation
FNDA:0,_RNvMNtNtCsgl6iEIT30H0_14openrouter_api3api10generationNtB2_13GenerationApi3new
FNDA:1,_RNCNvNtNtNtCsgYtBEIaUujk_14openrouter_api3api10generation5testss_29test_generation_id_validation0B9_
FNDA:1,_RNCNvNtNtNtCsgYtBEIaUujk_14openrouter_api3api10generation5testss_29test_generation_id_validations0_0B9_
FNDA:1,_RNCNvNtNtNtCsgYtBEIaUujk_14openrouter_api3api10generation5testss_29test_generation_id_validations_0B9_
FNDA:3,_RNvMNtNtCsgYtBEIaUujk_14openrouter_api3api10generationNtB2_13GenerationApi14get_generation
FNDA:3,_RNvMNtNtCsgYtBEIaUujk_14openrouter_api3api10generationNtB2_13GenerationApi3new
FNDA:0,_RNCNCNvMNtNtCsgYtBEIaUujk_14openrouter_api3api10generationNtB6_13GenerationApi14get_generation00Ba_
FNDA:1,_RNCNCNvMNtNtCsgYtBEIaUujk_14openrouter_api3api10generationNtB6_13GenerationApi14get_generation0s_0Ba_
FNDA:3,_RNCNvMNtNtCsgYtBEIaUujk_14openrouter_api3api10generationNtB4_13GenerationApi14get_generation0B8_
FNDA:1,_RNvNtNtNtCsgYtBEIaUujk_14openrouter_api3api10generation5testss_23test_generation_api_new
FNDA:1,_RNvNtNtNtCsgYtBEIaUujk_14openrouter_api3api10generation5testss_29test_generation_id_validation
FNF:10
FNH:9
DA:18,3
DA:20,3
DA:21,3
DA:23,3
DA:89,3
DA:91,3
DA:92,2
DA:93,2
DA:94,2
DA:95,1
DA:98,1
DA:99,1
DA:100,1
DA:101,1
DA:102,1
DA:104,0
DA:105,0
DA:106,0
DA:109,1
DA:112,1
DA:113,1
DA:114,1
DA:115,1
DA:116,1
DA:117,1
DA:118,1
DA:119,1
DA:122,1
DA:123,3
DA:131,1
DA:136,1
DA:137,1
DA:138,1
DA:139,1
DA:140,1
DA:141,1
DA:142,1
DA:143,1
DA:144,1
DA:145,1
DA:147,1
DA:148,1
DA:152,1
DA:153,1
DA:154,1
DA:157,1
DA:161,1
DA:162,1
DA:163,1
DA:164,1
DA:165,1
DA:166,1
DA:167,1
DA:168,1
DA:169,1
DA:170,1
DA:172,1
DA:173,1
DA:176,1
DA:177,1
DA:178,1
DA:181,1
DA:182,1
DA:185,1
DA:186,1
DA:187,1
BRF:0
BRH:0
LF:72
LH:68
end_of_record
SF:/Volumes/Everything/Development/openrouter_api/src/api/models.rs
FN:24,_RNvMNtNtCsgl6iEIT30H0_14openrouter_api3api6modelsNtB2_9ModelsApi11list_models
FN:16,_RNvMNtNtCsgl6iEIT30H0_14openrouter_api3api6modelsNtB2_9ModelsApi3new
FN:32,_RNCNCNvMNtNtCsgYtBEIaUujk_14openrouter_api3api6modelsNtB6_9ModelsApi11list_models00Ba_
FN:40,_RNCNCNvMNtNtCsgYtBEIaUujk_14openrouter_api3api6modelsNtB6_9ModelsApi11list_models0s_0Ba_
FN:24,_RNCNvMNtNtCsgYtBEIaUujk_14openrouter_api3api6modelsNtB4_9ModelsApi11list_models0B8_
FN:24,_RNvMNtNtCsgYtBEIaUujk_14openrouter_api3api6modelsNtB2_9ModelsApi11list_models
FN:16,_RNvMNtNtCsgYtBEIaUujk_14openrouter_api3api6modelsNtB2_9ModelsApi3new
FNDA:0,_RNvMNtNtCsgl6iEIT30H0_14openrouter_api3api6modelsNtB2_9ModelsApi11list_models
FNDA:0,_RNvMNtNtCsgl6iEIT30H0_14openrouter_api3api6modelsNtB2_9ModelsApi3new
FNDA:0,_RNCNCNvMNtNtCsgYtBEIaUujk_14openrouter_api3api6modelsNtB6_9ModelsApi11list_models00Ba_
FNDA:0,_RNCNCNvMNtNtCsgYtBEIaUujk_14openrouter_api3api6modelsNtB6_9ModelsApi11list_models0s_0Ba_
FNDA:0,_RNCNvMNtNtCsgYtBEIaUujk_14openrouter_api3api6modelsNtB4_9ModelsApi11list_models0B8_
FNDA:0,_RNvMNtNtCsgYtBEIaUujk_14openrouter_api3api6modelsNtB2_9ModelsApi11list_models
FNDA:0,_RNvMNtNtCsgYtBEIaUujk_14openrouter_api3api6modelsNtB2_9ModelsApi3new
FNF:5
FNH:0
DA:16,0
DA:18,0
DA:19,0
DA:21,0
DA:24,0
DA:26,0
DA:27,0
DA:28,0
DA:29,0
DA:30,0
DA:32,0
DA:33,0
DA:34,0
DA:37,0
DA:40,0
DA:41,0
DA:43,0
DA:44,0
DA:45,0
DA:47,0
DA:48,0
DA:49,0
DA:52,0
DA:53,0
BRF:0
BRH:0
LF:27
LH:0
end_of_record
SF:/Volumes/Everything/Development/openrouter_api/src/api/providers.rs
FN:70,_RNvMNtNtCsgl6iEIT30H0_14openrouter_api3api9providersNtB2_12ProvidersApi13get_providers
FN:395,_RNvMNtNtCsgl6iEIT30H0_14openrouter_api3api9providersNtB2_12ProvidersApi18get_provider_names
FN:360,_RNvMNtNtCsgl6iEIT30H0_14openrouter_api3api9providersNtB2_12ProvidersApi18get_provider_slugs
FN:189,_RNvMNtNtCsgl6iEIT30H0_14openrouter_api3api9providersNtB2_12ProvidersApi20get_provider_by_name
FN:139,_RNvMNtNtCsgl6iEIT30H0_14openrouter_api3api9providersNtB2_12ProvidersApi20get_provider_by_slug
FN:321,_RNvMNtNtCsgl6iEIT30H0_14openrouter_api3api9providersNtB2_12ProvidersApi30get_providers_with_status_page
FN:239,_RNvMNtNtCsgl6iEIT30H0_14openrouter_api3api9providersNtB2_12ProvidersApi33get_providers_with_privacy_policy
FN:280,_RNvMNtNtCsgl6iEIT30H0_14openrouter_api3api9providersNtB2_12ProvidersApi35get_providers_with_terms_of_service
FN:21,_RNvMNtNtCsgl6iEIT30H0_14openrouter_api3api9providersNtB2_12ProvidersApi3new
FN:429,_RNCNvNtNtNtCsgYtBEIaUujk_14openrouter_api3api9providers5testss_32test_providers_api_network_error0B9_
FN:465,_RNCNvNtNtNtCsgYtBEIaUujk_14openrouter_api3api9providers5testss_53test_provider_convenience_methods_with_empty_response0B9_
FN:90,_RNCNCNvMNtNtCsgYtBEIaUujk_14openrouter_api3api9providersNtB6_12ProvidersApi13get_providers00Ba_
FN:202,_RNCNCNvMNtNtCsgYtBEIaUujk_14openrouter_api3api9providersNtB6_12ProvidersApi20get_provider_by_name00Ba_
FN:152,_RNCNCNvMNtNtCsgYtBEIaUujk_14openrouter_api3api9providersNtB6_12ProvidersApi20get_provider_by_slug00Ba_
FN:70,_RNCNvMNtNtCsgYtBEIaUujk_14openrouter_api3api9providersNtB4_12ProvidersApi13get_providers0B8_
FN:395,_RNCNvMNtNtCsgYtBEIaUujk_14openrouter_api3api9providersNtB4_12ProvidersApi18get_provider_names0B8_
FN:360,_RNCNvMNtNtCsgYtBEIaUujk_14openrouter_api3api9providersNtB4_12ProvidersApi18get_provider_slugs0B8_
FN:189,_RNCNvMNtNtCsgYtBEIaUujk_14openrouter_api3api9providersNtB4_12ProvidersApi20get_provider_by_name0B8_
FN:139,_RNCNvMNtNtCsgYtBEIaUujk_14openrouter_api3api9providersNtB4_12ProvidersApi20get_provider_by_slug0B8_
FN:321,_RNCNvMNtNtCsgYtBEIaUujk_14openrouter_api3api9providersNtB4_12ProvidersApi30get_providers_with_status_page0B8_
FN:239,_RNCNvMNtNtCsgYtBEIaUujk_14openrouter_api3api9providersNtB4_12ProvidersApi33get_providers_with_privacy_policy0B8_
FN:280,_RNCNvMNtNtCsgYtBEIaUujk_14openrouter_api3api9providersNtB4_12ProvidersApi35get_providers_with_terms_of_service0B8_
FN:408,_RNvNtNtNtCsgYtBEIaUujk_14openrouter_api3api9providers5testss_22test_providers_api_new
FN:429,_RNvNtNtNtCsgYtBEIaUujk_14openrouter_api3api9providers5testss_32test_providers_api_network_error
FN:465,_RNvNtNtNtCsgYtBEIaUujk_14openrouter_api3api9providers5testss_53test_provider_convenience_methods_with_empty_response
FN:70,_RNvMNtNtCsgYtBEIaUujk_14openrouter_api3api9providersNtB2_12ProvidersApi13get_providers
FN:395,_RNvMNtNtCsgYtBEIaUujk_14openrouter_api3api9providersNtB2_12ProvidersApi18get_provider_names
FN:360,_RNvMNtNtCsgYtBEIaUujk_14openrouter_api3api9providersNtB2_12ProvidersApi18get_provider_slugs
FN:189,_RNvMNtNtCsgYtBEIaUujk_14openrouter_api3api9providersNtB2_12ProvidersApi20get_provider_by_name
FN:139,_RNvMNtNtCsgYtBEIaUujk_14openrouter_api3api9providersNtB2_12ProvidersApi20get_provider_by_slug
FN:321,_RNvMNtNtCsgYtBEIaUujk_14openrouter_api3api9providersNtB2_12ProvidersApi30get_providers_with_status_page
FN:239,_RNvMNtNtCsgYtBEIaUujk_14openrouter_api3api9providersNtB2_12ProvidersApi33get_providers_with_privacy_policy
FN:280,_RNvMNtNtCsgYtBEIaUujk_14openrouter_api3api9providersNtB2_12ProvidersApi35get_providers_with_terms_of_service
FN:21,_RNvMNtNtCsgYtBEIaUujk_14openrouter_api3api9providersNtB2_12ProvidersApi3new
FNDA:0,_RNvMNtNtCsgl6iEIT30H0_14openrouter_api3api9providersNtB2_12ProvidersApi13get_providers
FNDA:0,_RNvMNtNtCsgl6iEIT30H0_14openrouter_api3api9providersNtB2_12ProvidersApi18get_provider_names
FNDA:0,_RNvMNtNtCsgl6iEIT30H0_14openrouter_api3api9providersNtB2_12ProvidersApi18get_provider_slugs
FNDA:0,_RNvMNtNtCsgl6iEIT30H0_14openrouter_api3api9providersNtB2_12ProvidersApi20get_provider_by_name
FNDA:0,_RNvMNtNtCsgl6iEIT30H0_14openrouter_api3api9providersNtB2_12ProvidersApi20get_provider_by_slug
FNDA:0,_RNvMNtNtCsgl6iEIT30H0_14openrouter_api3api9providersNtB2_12ProvidersApi30get_providers_with_status_page
FNDA:0,_RNvMNtNtCsgl6iEIT30H0_14openrouter_api3api9providersNtB2_12ProvidersApi33get_providers_with_privacy_policy
FNDA:0,_RNvMNtNtCsgl6iEIT30H0_14openrouter_api3api9providersNtB2_12ProvidersApi35get_providers_with_terms_of_service
FNDA:0,_RNvMNtNtCsgl6iEIT30H0_14openrouter_api3api9providersNtB2_12ProvidersApi3new
FNDA:1,_RNCNvNtNtNtCsgYtBEIaUujk_14openrouter_api3api9providers5testss_32test_providers_api_network_error0B9_
FNDA:1,_RNCNvNtNtNtCsgYtBEIaUujk_14openrouter_api3api9providers5testss_53test_provider_convenience_methods_with_empty_response0B9_
FNDA:32,_RNCNCNvMNtNtCsgYtBEIaUujk_14openrouter_api3api9providersNtB6_12ProvidersApi13get_providers00Ba_
FNDA:0,_RNCNCNvMNtNtCsgYtBEIaUujk_14openrouter_api3api9providersNtB6_12ProvidersApi20get_provider_by_name00Ba_
FNDA:0,_RNCNCNvMNtNtCsgYtBEIaUujk_14openrouter_api3api9providersNtB6_12ProvidersApi20get_provider_by_slug00Ba_
FNDA:8,_RNCNvMNtNtCsgYtBEIaUujk_14openrouter_api3api9providersNtB4_12ProvidersApi13get_providers0B8_
FNDA:1,_RNCNvMNtNtCsgYtBEIaUujk_14openrouter_api3api9providersNtB4_12ProvidersApi18get_provider_names0B8_
FNDA:1,_RNCNvMNtNtCsgYtBEIaUujk_14openrouter_api3api9providersNtB4_12ProvidersApi18get_provider_slugs0B8_
FNDA:1,_RNCNvMNtNtCsgYtBEIaUujk_14openrouter_api3api9providersNtB4_12ProvidersApi20get_provider_by_name0B8_
FNDA:1,_RNCNvMNtNtCsgYtBEIaUujk_14openrouter_api3api9providersNtB4_12ProvidersApi20get_provider_by_slug0B8_
FNDA:1,_RNCNvMNtNtCsgYtBEIaUujk_14openrouter_api3api9providersNtB4_12ProvidersApi30get_providers_with_status_page0B8_
FNDA:1,_RNCNvMNtNtCsgYtBEIaUujk_14openrouter_api3api9providersNtB4_12ProvidersApi33get_providers_with_privacy_policy0B8_
FNDA:1,_RNCNvMNtNtCsgYtBEIaUujk_14openrouter_api3api9providersNtB4_12ProvidersApi35get_providers_with_terms_of_service0B8_
FNDA:1,_RNvNtNtNtCsgYtBEIaUujk_14openrouter_api3api9providers5testss_22test_providers_api_new
FNDA:1,_RNvNtNtNtCsgYtBEIaUujk_14openrouter_api3api9providers5testss_32test_providers_api_network_error
FNDA:1,_RNvNtNtNtCsgYtBEIaUujk_14openrouter_api3api9providers5testss_53test_provider_convenience_methods_with_empty_response
FNDA:8,_RNvMNtNtCsgYtBEIaUujk_14openrouter_api3api9providersNtB2_12ProvidersApi13get_providers
FNDA:1,_RNvMNtNtCsgYtBEIaUujk_14openrouter_api3api9providersNtB2_12ProvidersApi18get_provider_names
FNDA:1,_RNvMNtNtCsgYtBEIaUujk_14openrouter_api3api9providersNtB2_12ProvidersApi18get_provider_slugs
FNDA:1,_RNvMNtNtCsgYtBEIaUujk_14openrouter_api3api9providersNtB2_12ProvidersApi20get_provider_by_name
FNDA:1,_RNvMNtNtCsgYtBEIaUujk_14openrouter_api3api9providersNtB2_12ProvidersApi20get_provider_by_slug
FNDA:1,_RNvMNtNtCsgYtBEIaUujk_14openrouter_api3api9providersNtB2_12ProvidersApi30get_providers_with_status_page
FNDA:1,_RNvMNtNtCsgYtBEIaUujk_14openrouter_api3api9providersNtB2_12ProvidersApi33get_providers_with_privacy_policy
FNDA:1,_RNvMNtNtCsgYtBEIaUujk_14openrouter_api3api9providersNtB2_12ProvidersApi35get_providers_with_terms_of_service
FNDA:5,_RNvMNtNtCsgYtBEIaUujk_14openrouter_api3api9providersNtB2_12ProvidersApi3new
FNF:25
FNH:23
DA:21,5
DA:23,5
DA:24,5
DA:25,5
DA:27,5
DA:70,8
DA:72,8
DA:73,8
DA:74,8
DA:75,0
DA:76,8
DA:77,0
DA:80,8
DA:81,8
DA:83,0
DA:87,8
DA:90,32
DA:91,32
DA:92,32
DA:93,8
DA:96,0
DA:97,1
DA:100,0
DA:101,0
DA:102,0
DA:104,0
DA:105,8
DA:139,1
DA:141,1
DA:142,0
DA:143,0
DA:144,0
DA:145,1
DA:147,1
DA:149,0
DA:150,0
DA:151,0
DA:152,0
DA:153,0
DA:154,0
DA:155,1
DA:189,1
DA:191,1
DA:192,0
DA:193,0
DA:194,0
DA:195,1
DA:197,1
DA:199,0
DA:200,0
DA:201,0
DA:202,0
DA:203,0
DA:204,0
DA:205,1
DA:239,1
DA:240,1
DA:241,0
DA:242,0
DA:243,0
DA:244,0
DA:245,0
DA:246,1
DA:280,1
DA:281,1
DA:282,0
DA:283,0
DA:284,0
DA:285,0
DA:286,0
DA:287,1
DA:321,1
DA:322,1
DA:323,0
DA:324,0
DA:325,0
DA:326,0
DA:327,0
DA:328,1
DA:360,1
DA:361,1
DA:362,0
DA:363,1
DA:395,1
DA:396,1
DA:397,0
DA:398,1
DA:408,1
DA:409,1
DA:410,1
DA:411,1
DA:412,1
DA:413,1
DA:414,1
DA:415,1
DA:416,1
DA:417,1
DA:418,1
DA:419,1
DA:421,1
DA:426,1
DA:429,1
DA:430,1
DA:431,1
DA:432,1
DA:433,1
DA:434,1
DA:435,1
DA:436,1
DA:437,1
DA:438,1
DA:439,1
DA:440,1
DA:441,1
DA:442,1
DA:445,1
DA:446,1
DA:450,1
DA:451,1
DA:452,1
DA:453,1
DA:454,1
DA:455,1
DA:456,1
DA:457,1
DA:458,1
DA:459,1
DA:460,1
DA:461,1
DA:462,1
DA:465,1
DA:466,1
DA:467,1
DA:468,1
DA:469,1
DA:470,1
DA:471,1
DA:472,1
DA:473,1
DA:474,1
DA:475,1
DA:476,1
DA:477,1
DA:480,1
DA:481,1
DA:482,1
DA:483,1
DA:484,1
DA:485,1
DA:486,1
DA:487,1
DA:488,1
DA:489,1
DA:490,1
DA:491,1
DA:492,1
DA:493,1
DA:494,1
DA:495,1
DA:496,1
BRF:0
BRH:0
LF:182
LH:133
end_of_record
SF:/Volumes/Everything/Development/openrouter_api/src/api/request.rs
FN:87,_RINvMNtNtCsgl6iEIT30H0_14openrouter_api3api7requestINtB3_14RequestBuilderNtNtCsdLjdxSeljAF_10serde_json5value5ValueE3newNtNtCsk11oWLwBebd_5alloc6string6StringEB7_
FN:126,_RNvMNtNtCsgYtBEIaUujk_14openrouter_api3api7requestINtB2_14RequestBuilderpE10with_toolsB6_
FN:106,_RNvMNtNtCsgYtBEIaUujk_14openrouter_api3api7requestINtB2_14RequestBuilderpE22with_structured_outputB6_
FN:182,_RNvMs_NtNtCsgYtBEIaUujk_14openrouter_api3api7requestINtB4_14RequestBuilderNtNtCsdLjdxSeljAF_10serde_json5value5ValueE25with_provider_preferences
FN:87,_RINvMNtNtCsgYtBEIaUujk_14openrouter_api3api7requestINtB3_14RequestBuilderNtNtCsdLjdxSeljAF_10serde_json5value5ValueE3newReEB7_
FN:137,_RNvMNtNtCsgYtBEIaUujk_14openrouter_api3api7requestINtB2_14RequestBuilderNtNtCsdLjdxSeljAF_10serde_json5value5ValueE5buildB6_
FNDA:0,_RINvMNtNtCsgl6iEIT30H0_14openrouter_api3api7requestINtB3_14RequestBuilderNtNtCsdLjdxSeljAF_10serde_json5value5ValueE3newNtNtCsk11oWLwBebd_5alloc6string6StringEB7_
FNDA:0,_RNvMNtNtCsgYtBEIaUujk_14openrouter_api3api7requestINtB2_14RequestBuilderpE10with_toolsB6_
FNDA:0,_RNvMNtNtCsgYtBEIaUujk_14openrouter_api3api7requestINtB2_14RequestBuilderpE22with_structured_outputB6_
FNDA:1,_RNvMs_NtNtCsgYtBEIaUujk_14openrouter_api3api7requestINtB4_14RequestBuilderNtNtCsdLjdxSeljAF_10serde_json5value5ValueE25with_provider_preferences
FNDA:1,_RINvMNtNtCsgYtBEIaUujk_14openrouter_api3api7requestINtB3_14RequestBuilderNtNtCsdLjdxSeljAF_10serde_json5value5ValueE3newReEB7_
FNDA:1,_RNvMNtNtCsgYtBEIaUujk_14openrouter_api3api7requestINtB2_14RequestBuilderNtNtCsdLjdxSeljAF_10serde_json5value5ValueE5buildB6_
FNF:5
FNH:3
DA:87,1
DA:88,1
DA:89,1
DA:90,1
DA:91,1
DA:92,1
DA:93,1
DA:94,1
DA:95,1
DA:96,1
DA:97,1
DA:106,0
DA:107,0
DA:108,0
DA:109,0
DA:110,0
DA:111,0
DA:112,0
DA:113,0
DA:114,0
DA:115,0
DA:116,0
DA:117,0
DA:118,0
DA:119,0
DA:126,0
DA:127,0
DA:128,0
DA:129,0
DA:137,1
DA:138,1
DA:139,1
DA:140,1
DA:141,1
DA:142,1
DA:143,1
DA:144,1
DA:145,1
DA:182,1
DA:183,1
DA:184,1
DA:185,1
DA:187,1
DA:190,1
DA:191,1
DA:194,1
DA:195,1
DA:196,1
DA:198,1
DA:199,1
BRF:0
BRH:0
LF:50
LH:32
end_of_record
SF:/Volumes/Everything/Development/openrouter_api/src/api/structured.rs
FN:167,_RNvMNtNtCsgl6iEIT30H0_14openrouter_api3api10structuredNtB2_13StructuredApi23basic_schema_validation
FN:22,_RNvMNtNtCsgl6iEIT30H0_14openrouter_api3api10structuredNtB2_13StructuredApi3new
FN:31,_RINvMNtNtCsgYtBEIaUujk_14openrouter_api3api10structuredNtB3_13StructuredApi8generatepEB7_
FN:39,_RNCINvMNtNtCsgYtBEIaUujk_14openrouter_api3api10structuredNtB5_13StructuredApi8generatepE0B9_
FN:92,_RNCNCINvMNtNtCsgYtBEIaUujk_14openrouter_api3api10structuredNtB7_13StructuredApi8generatepE00Bb_
FN:145,_RNCNCINvMNtNtCsgYtBEIaUujk_14openrouter_api3api10structuredNtB7_13StructuredApi8generatepE0s0_0Bb_
FN:159,_RNCNCINvMNtNtCsgYtBEIaUujk_14openrouter_api3api10structuredNtB7_13StructuredApi8generatepE0s1_0Bb_
FN:112,_RNCNCINvMNtNtCsgYtBEIaUujk_14openrouter_api3api10structuredNtB7_13StructuredApi8generatepE0s_0Bb_
FN:167,_RNvMNtNtCsgYtBEIaUujk_14openrouter_api3api10structuredNtB2_13StructuredApi23basic_schema_validation
FN:22,_RNvMNtNtCsgYtBEIaUujk_14openrouter_api3api10structuredNtB2_13StructuredApi3new
FNDA:0,_RNvMNtNtCsgl6iEIT30H0_14openrouter_api3api10structuredNtB2_13StructuredApi23basic_schema_validation
FNDA:0,_RNvMNtNtCsgl6iEIT30H0_14openrouter_api3api10structuredNtB2_13StructuredApi3new
FNDA:0,_RINvMNtNtCsgYtBEIaUujk_14openrouter_api3api10structuredNtB3_13StructuredApi8generatepEB7_
FNDA:0,_RNCINvMNtNtCsgYtBEIaUujk_14openrouter_api3api10structuredNtB5_13StructuredApi8generatepE0B9_
FNDA:0,_RNCNCINvMNtNtCsgYtBEIaUujk_14openrouter_api3api10structuredNtB7_13StructuredApi8generatepE00Bb_
FNDA:0,_RNCNCINvMNtNtCsgYtBEIaUujk_14openrouter_api3api10structuredNtB7_13StructuredApi8generatepE0s0_0Bb_
FNDA:0,_RNCNCINvMNtNtCsgYtBEIaUujk_14openrouter_api3api10structuredNtB7_13StructuredApi8generatepE0s1_0Bb_
FNDA:0,_RNCNCINvMNtNtCsgYtBEIaUujk_14openrouter_api3api10structuredNtB7_13StructuredApi8generatepE0s_0Bb_
FNDA:0,_RNvMNtNtCsgYtBEIaUujk_14openrouter_api3api10structuredNtB2_13StructuredApi23basic_schema_validation
FNDA:0,_RNvMNtNtCsgYtBEIaUujk_14openrouter_api3api10structuredNtB2_13StructuredApi3new
FNF:8
FNH:0
DA:22,0
DA:24,0
DA:25,0
DA:27,0
DA:31,0
DA:32,0
DA:33,0
DA:34,0
DA:35,0
DA:36,0
DA:37,0
DA:38,0
DA:39,0
DA:41,0
DA:42,0
DA:43,0
DA:44,0
DA:45,0
DA:46,0
DA:47,0
DA:48,0
DA:49,0
DA:50,0
DA:51,0
DA:52,0
DA:53,0
DA:54,0
DA:55,0
DA:56,0
DA:57,0
DA:58,0
DA:59,0
DA:60,0
DA:61,0
DA:62,0
DA:63,0
DA:64,0
DA:65,0
DA:66,0
DA:67,0
DA:68,0
DA:69,0
DA:70,0
DA:71,0
DA:72,0
DA:73,0
DA:74,0
DA:75,0
DA:76,0
DA:77,0
DA:78,0
DA:79,0
DA:80,0
DA:81,0
DA:82,0
DA:83,0
DA:86,0
DA:87,0
DA:88,0
DA:89,0
DA:90,0
DA:92,0
DA:93,0
DA:94,0
DA:97,0
DA:98,0
DA:99,0
DA:100,0
DA:101,0
DA:102,0
DA:103,0
DA:108,0
DA:111,0
DA:112,0
DA:113,0
DA:114,0
DA:115,0
DA:116,0
DA:117,0
DA:118,0
DA:121,0
DA:122,0
DA:125,0
DA:126,0
DA:127,0
DA:128,0
DA:129,0
DA:130,0
DA:131,0
DA:133,0
DA:134,0
DA:136,0
DA:137,0
DA:138,0
DA:139,0
DA:140,0
DA:145,0
DA:146,0
DA:147,0
DA:150,0
DA:152,0
DA:153,0
DA:155,0
DA:156,0
DA:159,0
DA:160,0
DA:161,0
DA:162,0
DA:163,0
DA:164,0
DA:167,0
DA:169,0
DA:170,0
DA:171,0
DA:172,0
DA:173,0
DA:175,0
DA:178,0
DA:179,0
DA:180,0
DA:181,0
DA:182,0
DA:183,0
DA:184,0
DA:185,0
DA:186,0
DA:188,0
DA:189,0
DA:190,0
DA:191,0
DA:192,0
DA:193,0
DA:195,0
DA:196,0
DA:197,0
DA:198,0
DA:199,0
DA:200,0
DA:202,0
DA:203,0
DA:204,0
DA:205,0
DA:206,0
DA:207,0
DA:209,0
DA:210,0
DA:211,0
DA:212,0
DA:213,0
DA:214,0
DA:216,0
DA:218,0
DA:219,0
DA:222,0
DA:223,0
DA:224,0
DA:225,0
DA:226,0
DA:229,0
DA:230,0
DA:231,0
DA:232,0
DA:233,0
DA:234,0
DA:235,0
DA:236,0
DA:238,0
DA:239,0
DA:241,0
DA:242,0
BRF:0
BRH:0
LF:175
LH:0
end_of_record
SF:/Volumes/Everything/Development/openrouter_api/src/api/web_search.rs
FN:21,_RNvMNtNtCsgl6iEIT30H0_14openrouter_api3api10web_searchNtB2_12WebSearchApi3new
FN:29,_RNvMNtNtCsgl6iEIT30H0_14openrouter_api3api10web_searchNtB2_12WebSearchApi6search
FN:40,_RNCNCNvMNtNtCsgYtBEIaUujk_14openrouter_api3api10web_searchNtB6_12WebSearchApi6search00Ba_
FN:48,_RNCNCNvMNtNtCsgYtBEIaUujk_14openrouter_api3api10web_searchNtB6_12WebSearchApi6search0s_0Ba_
FN:29,_RNCNvMNtNtCsgYtBEIaUujk_14openrouter_api3api10web_searchNtB4_12WebSearchApi6search0B8_
FN:21,_RNvMNtNtCsgYtBEIaUujk_14openrouter_api3api10web_searchNtB2_12WebSearchApi3new
FN:29,_RNvMNtNtCsgYtBEIaUujk_14openrouter_api3api10web_searchNtB2_12WebSearchApi6search
FNDA:0,_RNvMNtNtCsgl6iEIT30H0_14openrouter_api3api10web_searchNtB2_12WebSearchApi3new
FNDA:0,_RNvMNtNtCsgl6iEIT30H0_14openrouter_api3api10web_searchNtB2_12WebSearchApi6search
FNDA:0,_RNCNCNvMNtNtCsgYtBEIaUujk_14openrouter_api3api10web_searchNtB6_12WebSearchApi6search00Ba_
FNDA:0,_RNCNCNvMNtNtCsgYtBEIaUujk_14openrouter_api3api10web_searchNtB6_12WebSearchApi6search0s_0Ba_
FNDA:0,_RNCNvMNtNtCsgYtBEIaUujk_14openrouter_api3api10web_searchNtB4_12WebSearchApi6search0B8_
FNDA:0,_RNvMNtNtCsgYtBEIaUujk_14openrouter_api3api10web_searchNtB2_12WebSearchApi3new
FNDA:0,_RNvMNtNtCsgYtBEIaUujk_14openrouter_api3api10web_searchNtB2_12WebSearchApi6search
FNF:5
FNH:0
DA:21,0
DA:23,0
DA:24,0
DA:26,0
DA:29,0
DA:31,0
DA:34,0
DA:35,0
DA:36,0
DA:37,0
DA:38,0
DA:40,0
DA:41,0
DA:42,0
DA:45,0
DA:48,0
DA:49,0
DA:50,0
DA:51,0
DA:52,0
DA:53,0
DA:54,0
DA:57,0
DA:58,0
DA:59,0
DA:60,0
BRF:0
BRH:0
LF:29
LH:0
end_of_record
SF:/Volumes/Everything/Development/openrouter_api/src/client.rs
FN:136,_RINvMs0_NtCsgl6iEIT30H0_14openrouter_api6clientNtB6_16OpenRouterClient12from_api_keyNtNtCsk11oWLwBebd_5alloc6string6StringEB8_
FN:213,_RINvMs1_NtCsgl6iEIT30H0_14openrouter_api6clientINtB6_16OpenRouterClientNtB6_6NoAuthE12with_api_keyNtNtCsk11oWLwBebd_5alloc6string6StringEB8_
FN:344,_RNCNvMs1_NtCsgl6iEIT30H0_14openrouter_api6clientINtB7_16OpenRouterClientNtB7_6NoAuthE19transition_to_ready0B9_
FN:434,_RNCNvMs2_NtCsgl6iEIT30H0_14openrouter_api6clientINtB7_16OpenRouterClientNtB7_5ReadyE10generation0B9_
FN:388,_RNCNvMs2_NtCsgl6iEIT30H0_14openrouter_api6clientINtB7_16OpenRouterClientNtB7_5ReadyE10structured0B9_
FN:397,_RNCNvMs2_NtCsgl6iEIT30H0_14openrouter_api6clientINtB7_16OpenRouterClientNtB7_5ReadyE10web_search0B9_
FN:370,_RNCNvMs2_NtCsgl6iEIT30H0_14openrouter_api6clientINtB7_16OpenRouterClientNtB7_5ReadyE11completions0B9_
FN:361,_RNCNvMs2_NtCsgl6iEIT30H0_14openrouter_api6clientINtB7_16OpenRouterClientNtB7_5ReadyE4chat0B9_
FN:379,_RNCNvMs2_NtCsgl6iEIT30H0_14openrouter_api6clientINtB7_16OpenRouterClientNtB7_5ReadyE6models0B9_
FN:406,_RNCNvMs2_NtCsgl6iEIT30H0_14openrouter_api6clientINtB7_16OpenRouterClientNtB7_5ReadyE7credits0B9_
FN:416,_RNCNvMs2_NtCsgl6iEIT30H0_14openrouter_api6clientINtB7_16OpenRouterClientNtB7_5ReadyE9analytics0B9_
FN:425,_RNCNvMs2_NtCsgl6iEIT30H0_14openrouter_api6clientINtB7_16OpenRouterClientNtB7_5ReadyE9providers0B9_
FN:196,_RNvMs0_NtCsgl6iEIT30H0_14openrouter_api6clientNtB5_16OpenRouterClient19model_with_shortcut
FN:179,_RNvMs0_NtCsgl6iEIT30H0_14openrouter_api6clientNtB5_16OpenRouterClient21transition_to_no_auth
FN:151,_RNvMs0_NtCsgl6iEIT30H0_14openrouter_api6clientNtB5_16OpenRouterClient22skip_url_configuration
FN:190,_RNvMs0_NtCsgl6iEIT30H0_14openrouter_api6clientNtB5_16OpenRouterClient23with_max_response_bytes
FN:114,_RNvMs0_NtCsgl6iEIT30H0_14openrouter_api6clientNtB5_16OpenRouterClient3new
FN:292,_RNvMs1_NtCsgl6iEIT30H0_14openrouter_api6clientINtB5_16OpenRouterClientNtB5_6NoAuthE12with_retries
FN:256,_RNvMs1_NtCsgl6iEIT30H0_14openrouter_api6clientINtB5_16OpenRouterClientNtB5_6NoAuthE12with_timeout
FN:306,_RNvMs1_NtCsgl6iEIT30H0_14openrouter_api6clientINtB5_16OpenRouterClientNtB5_6NoAuthE15without_retries
FN:286,_RNvMs1_NtCsgl6iEIT30H0_14openrouter_api6clientINtB5_16OpenRouterClientNtB5_6NoAuthE17with_retry_config
FN:262,_RNvMs1_NtCsgl6iEIT30H0_14openrouter_api6clientINtB5_16OpenRouterClientNtB5_6NoAuthE17with_timeout_secs
FN:334,_RNvMs1_NtCsgl6iEIT30H0_14openrouter_api6clientINtB5_16OpenRouterClientNtB5_6NoAuthE19transition_to_ready
FN:220,_RNvMs1_NtCsgl6iEIT30H0_14openrouter_api6clientINtB5_16OpenRouterClientNtB5_6NoAuthE19with_secure_api_key
FN:300,_RNvMs1_NtCsgl6iEIT30H0_14openrouter_api6clientINtB5_16OpenRouterClientNtB5_6NoAuthE23with_max_response_bytes
FN:312,_RNvMs1_NtCsgl6iEIT30H0_14openrouter_api6clientINtB5_16OpenRouterClientNtB5_6NoAuthE27with_model_coverage_profile
FN:321,_RNvMs1_NtCsgl6iEIT30H0_14openrouter_api6clientINtB5_16OpenRouterClientNtB5_6NoAuthE8with_zdr
FN:430,_RNvMs2_NtCsgl6iEIT30H0_14openrouter_api6clientINtB5_16OpenRouterClientNtB5_5ReadyE10generation
FN:384,_RNvMs2_NtCsgl6iEIT30H0_14openrouter_api6clientINtB5_16OpenRouterClientNtB5_5ReadyE10structured
FN:393,_RNvMs2_NtCsgl6iEIT30H0_14openrouter_api6clientINtB5_16OpenRouterClientNtB5_5ReadyE10web_search
FN:366,_RNvMs2_NtCsgl6iEIT30H0_14openrouter_api6clientINtB5_16OpenRouterClientNtB5_5ReadyE11completions
FN:563,_RNvMs2_NtCsgl6iEIT30H0_14openrouter_api6clientINtB5_16OpenRouterClientNtB5_5ReadyE19validate_tool_calls
FN:439,_RNvMs2_NtCsgl6iEIT30H0_14openrouter_api6clientINtB5_16OpenRouterClientNtB5_5ReadyE20chat_request_builder
FN:357,_RNvMs2_NtCsgl6iEIT30H0_14openrouter_api6clientINtB5_16OpenRouterClientNtB5_5ReadyE4chat
FN:375,_RNvMs2_NtCsgl6iEIT30H0_14openrouter_api6clientINtB5_16OpenRouterClientNtB5_5ReadyE6models
FN:402,_RNvMs2_NtCsgl6iEIT30H0_14openrouter_api6clientINtB5_16OpenRouterClientNtB5_5ReadyE7credits
FN:412,_RNvMs2_NtCsgl6iEIT30H0_14openrouter_api6clientINtB5_16OpenRouterClientNtB5_5ReadyE9analytics
FN:421,_RNvMs2_NtCsgl6iEIT30H0_14openrouter_api6clientINtB5_16OpenRouterClientNtB5_5ReadyE9providers
FN:92,_RNvMs_NtCsgl6iEIT30H0_14openrouter_api6clientINtB4_16OpenRouterClientNtB4_5ReadyE5quick
FN:61,_RNvMs_NtCsgl6iEIT30H0_14openrouter_api6clientINtB4_16OpenRouterClientNtB4_5ReadyE8from_env
FN:43,_RNvXNtCsgl6iEIT30H0_14openrouter_api6clientNtB2_16OpenRouterClientNtNtCs1FLWZe5rD62_4core7default7Default7default
FN:136,_RINvMs0_NtCsgYtBEIaUujk_14openrouter_api6clientNtB6_16OpenRouterClient12from_api_keypEB8_
FN:142,_RINvMs0_NtCsgYtBEIaUujk_14openrouter_api6clientNtB6_16OpenRouterClient20from_api_key_and_urlppEB8_
FN:227,_RINvMs1_NtCsgYtBEIaUujk_14openrouter_api6clientINtB6_16OpenRouterClientNtB6_6NoAuthE9configurepppEB8_
FN:495,_RINvMs2_NtCsgYtBEIaUujk_14openrouter_api6clientINtB6_16OpenRouterClientNtB6_5ReadyE15handle_responsepEB8_
FN:98,_RINvMs_NtCsgYtBEIaUujk_14openrouter_api6clientINtB5_16OpenRouterClientNtB5_5ReadyE10productionpppEB7_
FN:80,_RINvMs_NtCsgYtBEIaUujk_14openrouter_api6clientINtB5_16OpenRouterClientNtB5_5ReadyE20from_env_with_configppEB7_
FN:498,_RNCINvMs2_NtCsgYtBEIaUujk_14openrouter_api6clientINtB8_16OpenRouterClientNtB8_5ReadyE15handle_responsepE0Ba_
FN:547,_RNCNCINvMs2_NtCsgYtBEIaUujk_14openrouter_api6clientINtBa_16OpenRouterClientNtBa_5ReadyE15handle_responsepE00Bc_
FN:388,_RNCNvMs2_NtCsgYtBEIaUujk_14openrouter_api6clientINtB7_16OpenRouterClientNtB7_5ReadyE10structured0B9_
FN:397,_RNCNvMs2_NtCsgYtBEIaUujk_14openrouter_api6clientINtB7_16OpenRouterClientNtB7_5ReadyE10web_search0B9_
FN:370,_RNCNvMs2_NtCsgYtBEIaUujk_14openrouter_api6clientINtB7_16OpenRouterClientNtB7_5ReadyE11completions0B9_
FN:361,_RNCNvMs2_NtCsgYtBEIaUujk_14openrouter_api6clientINtB7_16OpenRouterClientNtB7_5ReadyE4chat0B9_
FN:379,_RNCNvMs2_NtCsgYtBEIaUujk_14openrouter_api6clientINtB7_16OpenRouterClientNtB7_5ReadyE6models0B9_
FN:196,_RNvMs0_NtCsgYtBEIaUujk_14openrouter_api6clientNtB5_16OpenRouterClient19model_with_shortcut
FN:151,_RNvMs0_NtCsgYtBEIaUujk_14openrouter_api6clientNtB5_16OpenRouterClient22skip_url_configuration
FN:292,_RNvMs1_NtCsgYtBEIaUujk_14openrouter_api6clientINtB5_16OpenRouterClientNtB5_6NoAuthE12with_retries
FN:306,_RNvMs1_NtCsgYtBEIaUujk_14openrouter_api6clientINtB5_16OpenRouterClientNtB5_6NoAuthE15without_retries
FN:262,_RNvMs1_NtCsgYtBEIaUujk_14openrouter_api6clientINtB5_16OpenRouterClientNtB5_6NoAuthE17with_timeout_secs
FN:220,_RNvMs1_NtCsgYtBEIaUujk_14openrouter_api6clientINtB5_16OpenRouterClientNtB5_6NoAuthE19with_secure_api_key
FN:300,_RNvMs1_NtCsgYtBEIaUujk_14openrouter_api6clientINtB5_16OpenRouterClientNtB5_6NoAuthE23with_max_response_bytes
FN:312,_RNvMs1_NtCsgYtBEIaUujk_14openrouter_api6clientINtB5_16OpenRouterClientNtB5_6NoAuthE27with_model_coverage_profile
FN:321,_RNvMs1_NtCsgYtBEIaUujk_14openrouter_api6clientINtB5_16OpenRouterClientNtB5_6NoAuthE8with_zdr
FN:384,_RNvMs2_NtCsgYtBEIaUujk_14openrouter_api6clientINtB5_16OpenRouterClientNtB5_5ReadyE10structured
FN:393,_RNvMs2_NtCsgYtBEIaUujk_14openrouter_api6clientINtB5_16OpenRouterClientNtB5_5ReadyE10web_search
FN:366,_RNvMs2_NtCsgYtBEIaUujk_14openrouter_api6clientINtB5_16OpenRouterClientNtB5_5ReadyE11completions
FN:439,_RNvMs2_NtCsgYtBEIaUujk_14openrouter_api6clientINtB5_16OpenRouterClientNtB5_5ReadyE20chat_request_builder
FN:357,_RNvMs2_NtCsgYtBEIaUujk_14openrouter_api6clientINtB5_16OpenRouterClientNtB5_5ReadyE4chat
FN:375,_RNvMs2_NtCsgYtBEIaUujk_14openrouter_api6clientINtB5_16OpenRouterClientNtB5_5ReadyE6models
FN:92,_RNvMs_NtCsgYtBEIaUujk_14openrouter_api6clientINtB4_16OpenRouterClientNtB4_5ReadyE5quick
FN:61,_RNvMs_NtCsgYtBEIaUujk_14openrouter_api6clientINtB4_16OpenRouterClientNtB4_5ReadyE8from_env
FN:166,_RINvMs0_NtCsgYtBEIaUujk_14openrouter_api6clientNtB6_16OpenRouterClient13with_base_urlReEB8_
FN:213,_RINvMs1_NtCsgYtBEIaUujk_14openrouter_api6clientINtB6_16OpenRouterClientNtB6_6NoAuthE12with_api_keyNtNtCsk11oWLwBebd_5alloc6string6StringEB8_
FN:213,_RINvMs1_NtCsgYtBEIaUujk_14openrouter_api6clientINtB6_16OpenRouterClientNtB6_6NoAuthE12with_api_keyReEB8_
FN:280,_RINvMs1_NtCsgYtBEIaUujk_14openrouter_api6clientINtB6_16OpenRouterClientNtB6_6NoAuthE12with_user_idReEB8_
FN:274,_RINvMs1_NtCsgYtBEIaUujk_14openrouter_api6clientINtB6_16OpenRouterClientNtB6_6NoAuthE15with_site_titleReEB8_
FN:268,_RINvMs1_NtCsgYtBEIaUujk_14openrouter_api6clientINtB6_16OpenRouterClientNtB6_6NoAuthE17with_http_refererReEB8_
FN:171,_RNCINvMs0_NtCsgYtBEIaUujk_14openrouter_api6clientNtB8_16OpenRouterClient13with_base_urlReE0Ba_
FN:344,_RNCNvMs1_NtCsgYtBEIaUujk_14openrouter_api6clientINtB7_16OpenRouterClientNtB7_6NoAuthE19transition_to_ready0B9_
FN:434,_RNCNvMs2_NtCsgYtBEIaUujk_14openrouter_api6clientINtB7_16OpenRouterClientNtB7_5ReadyE10generation0B9_
FN:406,_RNCNvMs2_NtCsgYtBEIaUujk_14openrouter_api6clientINtB7_16OpenRouterClientNtB7_5ReadyE7credits0B9_
FN:416,_RNCNvMs2_NtCsgYtBEIaUujk_14openrouter_api6clientINtB7_16OpenRouterClientNtB7_5ReadyE9analytics0B9_
FN:425,_RNCNvMs2_NtCsgYtBEIaUujk_14openrouter_api6clientINtB7_16OpenRouterClientNtB7_5ReadyE9providers0B9_
FN:179,_RNvMs0_NtCsgYtBEIaUujk_14openrouter_api6clientNtB5_16OpenRouterClient21transition_to_no_auth
FN:190,_RNvMs0_NtCsgYtBEIaUujk_14openrouter_api6clientNtB5_16OpenRouterClient23with_max_response_bytes
FN:114,_RNvMs0_NtCsgYtBEIaUujk_14openrouter_api6clientNtB5_16OpenRouterClient3new
FN:256,_RNvMs1_NtCsgYtBEIaUujk_14openrouter_api6clientINtB5_16OpenRouterClientNtB5_6NoAuthE12with_timeout
FN:286,_RNvMs1_NtCsgYtBEIaUujk_14openrouter_api6clientINtB5_16OpenRouterClientNtB5_6NoAuthE17with_retry_config
FN:334,_RNvMs1_NtCsgYtBEIaUujk_14openrouter_api6clientINtB5_16OpenRouterClientNtB5_6NoAuthE19transition_to_ready
FN:430,_RNvMs2_NtCsgYtBEIaUujk_14openrouter_api6clientINtB5_16OpenRouterClientNtB5_5ReadyE10generation
FN:563,_RNvMs2_NtCsgYtBEIaUujk_14openrouter_api6clientINtB5_16OpenRouterClientNtB5_5ReadyE19validate_tool_calls
FN:402,_RNvMs2_NtCsgYtBEIaUujk_14openrouter_api6clientINtB5_16OpenRouterClientNtB5_5ReadyE7credits
FN:412,_RNvMs2_NtCsgYtBEIaUujk_14openrouter_api6clientINtB5_16OpenRouterClientNtB5_5ReadyE9analytics
FN:421,_RNvMs2_NtCsgYtBEIaUujk_14openrouter_api6clientINtB5_16OpenRouterClientNtB5_5ReadyE9providers
FN:43,_RNvXNtCsgYtBEIaUujk_14openrouter_api6clientNtB2_16OpenRouterClientNtNtCs1FLWZe5rD62_4core7default7Default7default
FNDA:0,_RINvMs0_NtCsgl6iEIT30H0_14openrouter_api6clientNtB6_16OpenRouterClient12from_api_keyNtNtCsk11oWLwBebd_5alloc6string6StringEB8_
FNDA:0,_RINvMs1_NtCsgl6iEIT30H0_14openrouter_api6clientINtB6_16OpenRouterClientNtB6_6NoAuthE12with_api_keyNtNtCsk11oWLwBebd_5alloc6string6StringEB8_
FNDA:0,_RNCNvMs1_NtCsgl6iEIT30H0_14openrouter_api6clientINtB7_16OpenRouterClientNtB7_6NoAuthE19transition_to_ready0B9_
FNDA:0,_RNCNvMs2_NtCsgl6iEIT30H0_14openrouter_api6clientINtB7_16OpenRouterClientNtB7_5ReadyE10generation0B9_
FNDA:0,_RNCNvMs2_NtCsgl6iEIT30H0_14openrouter_api6clientINtB7_16OpenRouterClientNtB7_5ReadyE10structured0B9_
FNDA:0,_RNCNvMs2_NtCsgl6iEIT30H0_14openrouter_api6clientINtB7_16OpenRouterClientNtB7_5ReadyE10web_search0B9_
FNDA:0,_RNCNvMs2_NtCsgl6iEIT30H0_14openrouter_api6clientINtB7_16OpenRouterClientNtB7_5ReadyE11completions0B9_
FNDA:0,_RNCNvMs2_NtCsgl6iEIT30H0_14openrouter_api6clientINtB7_16OpenRouterClientNtB7_5ReadyE4chat0B9_
FNDA:0,_RNCNvMs2_NtCsgl6iEIT30H0_14openrouter_api6clientINtB7_16OpenRouterClientNtB7_5ReadyE6models0B9_
FNDA:0,_RNCNvMs2_NtCsgl6iEIT30H0_14openrouter_api6clientINtB7_16OpenRouterClientNtB7_5ReadyE7credits0B9_
FNDA:0,_RNCNvMs2_NtCsgl6iEIT30H0_14openrouter_api6clientINtB7_16OpenRouterClientNtB7_5ReadyE9analytics0B9_
FNDA:0,_RNCNvMs2_NtCsgl6iEIT30H0_14openrouter_api6clientINtB7_16OpenRouterClientNtB7_5ReadyE9providers0B9_
FNDA:1,_RNvMs0_NtCsgl6iEIT30H0_14openrouter_api6clientNtB5_16OpenRouterClient19model_with_shortcut
FNDA:1,_RNvMs0_NtCsgl6iEIT30H0_14openrouter_api6clientNtB5_16OpenRouterClient21transition_to_no_auth
FNDA:1,_RNvMs0_NtCsgl6iEIT30H0_14openrouter_api6clientNtB5_16OpenRouterClient22skip_url_configuration
FNDA:0,_RNvMs0_NtCsgl6iEIT30H0_14openrouter_api6clientNtB5_16OpenRouterClient23with_max_response_bytes
FNDA:1,_RNvMs0_NtCsgl6iEIT30H0_14openrouter_api6clientNtB5_16OpenRouterClient3new
FNDA:0,_RNvMs1_NtCsgl6iEIT30H0_14openrouter_api6clientINtB5_16OpenRouterClientNtB5_6NoAuthE12with_retries
FNDA:0,_RNvMs1_NtCsgl6iEIT30H0_14openrouter_api6clientINtB5_16OpenRouterClientNtB5_6NoAuthE12with_timeout
FNDA:0,_RNvMs1_NtCsgl6iEIT30H0_14openrouter_api6clientINtB5_16OpenRouterClientNtB5_6NoAuthE15without_retries
FNDA:0,_RNvMs1_NtCsgl6iEIT30H0_14openrouter_api6clientINtB5_16OpenRouterClientNtB5_6NoAuthE17with_retry_config
FNDA:0,_RNvMs1_NtCsgl6iEIT30H0_14openrouter_api6clientINtB5_16OpenRouterClientNtB5_6NoAuthE17with_timeout_secs
FNDA:0,_RNvMs1_NtCsgl6iEIT30H0_14openrouter_api6clientINtB5_16OpenRouterClientNtB5_6NoAuthE19transition_to_ready
FNDA:0,_RNvMs1_NtCsgl6iEIT30H0_14openrouter_api6clientINtB5_16OpenRouterClientNtB5_6NoAuthE19with_secure_api_key
FNDA:0,_RNvMs1_NtCsgl6iEIT30H0_14openrouter_api6clientINtB5_16OpenRouterClientNtB5_6NoAuthE23with_max_response_bytes
FNDA:0,_RNvMs1_NtCsgl6iEIT30H0_14openrouter_api6clientINtB5_16OpenRouterClientNtB5_6NoAuthE27with_model_coverage_profile
FNDA:1,_RNvMs1_NtCsgl6iEIT30H0_14openrouter_api6clientINtB5_16OpenRouterClientNtB5_6NoAuthE8with_zdr
FNDA:0,_RNvMs2_NtCsgl6iEIT30H0_14openrouter_api6clientINtB5_16OpenRouterClientNtB5_5ReadyE10generation
FNDA:0,_RNvMs2_NtCsgl6iEIT30H0_14openrouter_api6clientINtB5_16OpenRouterClientNtB5_5ReadyE10structured
FNDA:0,_RNvMs2_NtCsgl6iEIT30H0_14openrouter_api6clientINtB5_16OpenRouterClientNtB5_5ReadyE10web_search
FNDA:0,_RNvMs2_NtCsgl6iEIT30H0_14openrouter_api6clientINtB5_16OpenRouterClientNtB5_5ReadyE11completions
FNDA:0,_RNvMs2_NtCsgl6iEIT30H0_14openrouter_api6clientINtB5_16OpenRouterClientNtB5_5ReadyE19validate_tool_calls
FNDA:0,_RNvMs2_NtCsgl6iEIT30H0_14openrouter_api6clientINtB5_16OpenRouterClientNtB5_5ReadyE20chat_request_builder
FNDA:0,_RNvMs2_NtCsgl6iEIT30H0_14openrouter_api6clientINtB5_16OpenRouterClientNtB5_5ReadyE4chat
FNDA:0,_RNvMs2_NtCsgl6iEIT30H0_14openrouter_api6clientINtB5_16OpenRouterClientNtB5_5ReadyE6models
FNDA:0,_RNvMs2_NtCsgl6iEIT30H0_14openrouter_api6clientINtB5_16OpenRouterClientNtB5_5ReadyE7credits
FNDA:0,_RNvMs2_NtCsgl6iEIT30H0_14openrouter_api6clientINtB5_16OpenRouterClientNtB5_5ReadyE9analytics
FNDA:0,_RNvMs2_NtCsgl6iEIT30H0_14openrouter_api6clientINtB5_16OpenRouterClientNtB5_5ReadyE9providers
FNDA:0,_RNvMs_NtCsgl6iEIT30H0_14openrouter_api6clientINtB4_16OpenRouterClientNtB4_5ReadyE5quick
FNDA:0,_RNvMs_NtCsgl6iEIT30H0_14openrouter_api6clientINtB4_16OpenRouterClientNtB4_5ReadyE8from_env
FNDA:0,_RNvXNtCsgl6iEIT30H0_14openrouter_api6clientNtB2_16OpenRouterClientNtNtCs1FLWZe5rD62_4core7default7Default7default
FNDA:0,_RINvMs0_NtCsgYtBEIaUujk_14openrouter_api6clientNtB6_16OpenRouterClient12from_api_keypEB8_
FNDA:0,_RINvMs0_NtCsgYtBEIaUujk_14openrouter_api6clientNtB6_16OpenRouterClient20from_api_key_and_urlppEB8_
FNDA:0,_RINvMs1_NtCsgYtBEIaUujk_14openrouter_api6clientINtB6_16OpenRouterClientNtB6_6NoAuthE9configurepppEB8_
FNDA:0,_RINvMs2_NtCsgYtBEIaUujk_14openrouter_api6clientINtB6_16OpenRouterClientNtB6_5ReadyE15handle_responsepEB8_
FNDA:0,_RINvMs_NtCsgYtBEIaUujk_14openrouter_api6clientINtB5_16OpenRouterClientNtB5_5ReadyE10productionpppEB7_
FNDA:0,_RINvMs_NtCsgYtBEIaUujk_14openrouter_api6clientINtB5_16OpenRouterClientNtB5_5ReadyE20from_env_with_configppEB7_
FNDA:0,_RNCINvMs2_NtCsgYtBEIaUujk_14openrouter_api6clientINtB8_16OpenRouterClientNtB8_5ReadyE15handle_responsepE0Ba_
FNDA:0,_RNCNCINvMs2_NtCsgYtBEIaUujk_14openrouter_api6clientINtBa_16OpenRouterClientNtBa_5ReadyE15handle_responsepE00Bc_
FNDA:0,_RNCNvMs2_NtCsgYtBEIaUujk_14openrouter_api6clientINtB7_16OpenRouterClientNtB7_5ReadyE10structured0B9_
FNDA:0,_RNCNvMs2_NtCsgYtBEIaUujk_14openrouter_api6clientINtB7_16OpenRouterClientNtB7_5ReadyE10web_search0B9_
FNDA:0,_RNCNvMs2_NtCsgYtBEIaUujk_14openrouter_api6clientINtB7_16OpenRouterClientNtB7_5ReadyE11completions0B9_
FNDA:0,_RNCNvMs2_NtCsgYtBEIaUujk_14openrouter_api6clientINtB7_16OpenRouterClientNtB7_5ReadyE4chat0B9_
FNDA:0,_RNCNvMs2_NtCsgYtBEIaUujk_14openrouter_api6clientINtB7_16OpenRouterClientNtB7_5ReadyE6models0B9_
FNDA:0,_RNvMs0_NtCsgYtBEIaUujk_14openrouter_api6clientNtB5_16OpenRouterClient19model_with_shortcut
FNDA:0,_RNvMs0_NtCsgYtBEIaUujk_14openrouter_api6clientNtB5_16OpenRouterClient22skip_url_configuration
FNDA:0,_RNvMs1_NtCsgYtBEIaUujk_14openrouter_api6clientINtB5_16OpenRouterClientNtB5_6NoAuthE12with_retries
FNDA:0,_RNvMs1_NtCsgYtBEIaUujk_14openrouter_api6clientINtB5_16OpenRouterClientNtB5_6NoAuthE15without_retries
FNDA:0,_RNvMs1_NtCsgYtBEIaUujk_14openrouter_api6clientINtB5_16OpenRouterClientNtB5_6NoAuthE17with_timeout_secs
FNDA:0,_RNvMs1_NtCsgYtBEIaUujk_14openrouter_api6clientINtB5_16OpenRouterClientNtB5_6NoAuthE19with_secure_api_key
FNDA:0,_RNvMs1_NtCsgYtBEIaUujk_14openrouter_api6clientINtB5_16OpenRouterClientNtB5_6NoAuthE23with_max_response_bytes
FNDA:0,_RNvMs1_NtCsgYtBEIaUujk_14openrouter_api6clientINtB5_16OpenRouterClientNtB5_6NoAuthE27with_model_coverage_profile
FNDA:0,_RNvMs1_NtCsgYtBEIaUujk_14openrouter_api6clientINtB5_16OpenRouterClientNtB5_6NoAuthE8with_zdr
FNDA:0,_RNvMs2_NtCsgYtBEIaUujk_14openrouter_api6clientINtB5_16OpenRouterClientNtB5_5ReadyE10structured
FNDA:0,_RNvMs2_NtCsgYtBEIaUujk_14openrouter_api6clientINtB5_16OpenRouterClientNtB5_5ReadyE10web_search
FNDA:0,_RNvMs2_NtCsgYtBEIaUujk_14openrouter_api6clientINtB5_16OpenRouterClientNtB5_5ReadyE11completions
FNDA:0,_RNvMs2_NtCsgYtBEIaUujk_14openrouter_api6clientINtB5_16OpenRouterClientNtB5_5ReadyE20chat_request_builder
FNDA:0,_RNvMs2_NtCsgYtBEIaUujk_14openrouter_api6clientINtB5_16OpenRouterClientNtB5_5ReadyE4chat
FNDA:0,_RNvMs2_NtCsgYtBEIaUujk_14openrouter_api6clientINtB5_16OpenRouterClientNtB5_5ReadyE6models
FNDA:0,_RNvMs_NtCsgYtBEIaUujk_14openrouter_api6clientINtB4_16OpenRouterClientNtB4_5ReadyE5quick
FNDA:0,_RNvMs_NtCsgYtBEIaUujk_14openrouter_api6clientINtB4_16OpenRouterClientNtB4_5ReadyE8from_env
FNDA:14,_RINvMs0_NtCsgYtBEIaUujk_14openrouter_api6clientNtB6_16OpenRouterClient13with_base_urlReEB8_
FNDA:1,_RINvMs1_NtCsgYtBEIaUujk_14openrouter_api6clientINtB6_16OpenRouterClientNtB6_6NoAuthE12with_api_keyNtNtCsk11oWLwBebd_5alloc6string6StringEB8_
FNDA:9,_RINvMs1_NtCsgYtBEIaUujk_14openrouter_api6clientINtB6_16OpenRouterClientNtB6_6NoAuthE12with_api_keyReEB8_
FNDA:1,_RINvMs1_NtCsgYtBEIaUujk_14openrouter_api6clientINtB6_16OpenRouterClientNtB6_6NoAuthE12with_user_idReEB8_
FNDA:5,_RINvMs1_NtCsgYtBEIaUujk_14openrouter_api6clientINtB6_16OpenRouterClientNtB6_6NoAuthE15with_site_titleReEB8_
FNDA:5,_RINvMs1_NtCsgYtBEIaUujk_14openrouter_api6clientINtB6_16OpenRouterClientNtB6_6NoAuthE17with_http_refererReEB8_
FNDA:1,_RNCINvMs0_NtCsgYtBEIaUujk_14openrouter_api6clientNtB8_16OpenRouterClient13with_base_urlReE0Ba_
FNDA:0,_RNCNvMs1_NtCsgYtBEIaUujk_14openrouter_api6clientINtB7_16OpenRouterClientNtB7_6NoAuthE19transition_to_ready0B9_
FNDA:0,_RNCNvMs2_NtCsgYtBEIaUujk_14openrouter_api6clientINtB7_16OpenRouterClientNtB7_5ReadyE10generation0B9_
FNDA:0,_RNCNvMs2_NtCsgYtBEIaUujk_14openrouter_api6clientINtB7_16OpenRouterClientNtB7_5ReadyE7credits0B9_
FNDA:0,_RNCNvMs2_NtCsgYtBEIaUujk_14openrouter_api6clientINtB7_16OpenRouterClientNtB7_5ReadyE9analytics0B9_
FNDA:0,_RNCNvMs2_NtCsgYtBEIaUujk_14openrouter_api6clientINtB7_16OpenRouterClientNtB7_5ReadyE9providers0B9_
FNDA:13,_RNvMs0_NtCsgYtBEIaUujk_14openrouter_api6clientNtB5_16OpenRouterClient21transition_to_no_auth
FNDA:1,_RNvMs0_NtCsgYtBEIaUujk_14openrouter_api6clientNtB5_16OpenRouterClient23with_max_response_bytes
FNDA:17,_RNvMs0_NtCsgYtBEIaUujk_14openrouter_api6clientNtB5_16OpenRouterClient3new
FNDA:1,_RNvMs1_NtCsgYtBEIaUujk_14openrouter_api6clientINtB5_16OpenRouterClientNtB5_6NoAuthE12with_timeout
FNDA:1,_RNvMs1_NtCsgYtBEIaUujk_14openrouter_api6clientINtB5_16OpenRouterClientNtB5_6NoAuthE17with_retry_config
FNDA:9,_RNvMs1_NtCsgYtBEIaUujk_14openrouter_api6clientINtB5_16OpenRouterClientNtB5_6NoAuthE19transition_to_ready
FNDA:1,_RNvMs2_NtCsgYtBEIaUujk_14openrouter_api6clientINtB5_16OpenRouterClientNtB5_5ReadyE10generation
FNDA:2,_RNvMs2_NtCsgYtBEIaUujk_14openrouter_api6clientINtB5_16OpenRouterClientNtB5_5ReadyE19validate_tool_calls
FNDA:1,_RNvMs2_NtCsgYtBEIaUujk_14openrouter_api6clientINtB5_16OpenRouterClientNtB5_5ReadyE7credits
FNDA:2,_RNvMs2_NtCsgYtBEIaUujk_14openrouter_api6clientINtB5_16OpenRouterClientNtB5_5ReadyE9analytics
FNDA:2,_RNvMs2_NtCsgYtBEIaUujk_14openrouter_api6clientINtB5_16OpenRouterClientNtB5_5ReadyE9providers
FNDA:1,_RNvXNtCsgYtBEIaUujk_14openrouter_api6clientNtB2_16OpenRouterClientNtNtCs1FLWZe5rD62_4core7default7Default7default
FNF:53
FNH:21
DA:43,1
DA:44,1
DA:45,1
DA:61,0
DA:62,0
DA:63,0
DA:64,0
DA:80,0
DA:81,0
DA:82,0
DA:83,0
DA:84,0
DA:85,0
DA:86,0
DA:87,0
DA:88,0
DA:92,0
DA:93,0
DA:94,0
DA:98,0
DA:99,0
DA:100,0
DA:101,0
DA:102,0
DA:103,0
DA:104,0
DA:105,0
DA:106,0
DA:107,0
DA:108,0
DA:114,18
DA:115,18
DA:116,18
DA:117,18
DA:118,18
DA:119,18
DA:120,18
DA:121,18
DA:122,18
DA:123,18
DA:124,18
DA:125,18
DA:126,18
DA:127,18
DA:128,18
DA:129,18
DA:130,18
DA:131,18
DA:132,18
DA:136,0
DA:137,0
DA:138,0
DA:142,0
DA:143,0
DA:144,0
DA:145,0
DA:146,0
DA:147,0
DA:151,1
DA:152,1
DA:153,1
DA:166,14
DA:167,14
DA:168,14
DA:169,14
DA:170,14
DA:171,14
DA:172,1
DA:173,1
DA:174,1
DA:175,1
DA:176,13
DA:177,14
DA:179,14
DA:180,14
DA:181,14
DA:182,14
DA:183,14
DA:184,14
DA:185,14
DA:186,14
DA:190,1
DA:191,1
DA:192,1
DA:193,1
DA:196,1
DA:197,1
DA:198,1
DA:213,10
DA:214,10
DA:215,9
DA:216,10
DA:220,0
DA:221,0
DA:222,0
DA:223,0
DA:227,0
DA:228,0
DA:229,0
DA:230,0
DA:231,0
DA:232,0
DA:233,0
DA:234,0
DA:235,0
DA:236,0
DA:237,0
DA:238,0
DA:239,0
DA:240,0
DA:241,0
DA:256,1
DA:257,1
DA:258,1
DA:259,1
DA:262,0
DA:263,0
DA:264,0
DA:265,0
DA:268,5
DA:269,5
DA:270,5
DA:271,5
DA:274,5
DA:275,5
DA:276,5
DA:277,5
DA:280,1
DA:281,1
DA:282,1
DA:283,1
DA:286,1
DA:287,1
DA:288,1
DA:289,1
DA:292,0
DA:293,0
DA:294,0
DA:295,0
DA:296,0
DA:300,0
DA:301,0
DA:302,0
DA:303,0
DA:306,0
DA:307,0
DA:308,0
DA:309,0
DA:312,0
DA:313,0
DA:314,0
DA:315,0
DA:316,0
DA:317,0
DA:318,0
DA:321,1
DA:322,1
DA:323,1
DA:324,1
DA:325,1
DA:327,1
DA:328,1
DA:329,1
DA:330,1
DA:331,1
DA:332,1
DA:334,9
DA:335,9
DA:338,9
DA:339,9
DA:340,9
DA:342,9
DA:343,9
DA:344,9
DA:346,9
DA:347,9
DA:348,9
DA:349,9
DA:350,9
DA:351,9
DA:352,9
DA:357,0
DA:358,0
DA:359,0
DA:360,0
DA:361,0
DA:362,0
DA:363,0
DA:366,0
DA:367,0
DA:368,0
DA:369,0
DA:370,0
DA:371,0
DA:372,0
DA:375,0
DA:376,0
DA:377,0
DA:378,0
DA:379,0
DA:380,0
DA:381,0
DA:384,0
DA:385,0
DA:386,0
DA:387,0
DA:388,0
DA:389,0
DA:390,0
DA:393,0
DA:394,0
DA:395,0
DA:396,0
DA:397,0
DA:398,0
DA:399,0
DA:402,1
DA:403,1
DA:404,1
DA:405,1
DA:406,1
DA:407,1
DA:408,1
DA:412,2
DA:413,2
DA:414,2
DA:415,2
DA:416,2
DA:417,2
DA:418,2
DA:421,2
DA:422,2
DA:423,2
DA:424,2
DA:425,2
DA:426,2
DA:427,2
DA:430,1
DA:431,1
DA:432,1
DA:433,1
DA:434,1
DA:435,1
DA:436,1
DA:439,0
DA:440,0
DA:441,0
DA:442,0
DA:444,0
DA:445,0
DA:446,0
DA:447,0
DA:448,0
DA:450,0
DA:454,0
DA:458,0
DA:461,0
DA:462,0
DA:464,0
DA:465,0
DA:466,0
DA:467,0
DA:468,0
DA:469,0
DA:470,0
DA:471,0
DA:473,0
DA:476,0
DA:477,0
DA:478,0
DA:479,0
DA:480,0
DA:481,0
DA:482,0
DA:483,0
DA:484,0
DA:485,0
DA:487,0
DA:488,0
DA:489,0
DA:491,0
DA:492,0
DA:495,0
DA:496,0
DA:497,0
DA:498,0
DA:499,0
DA:502,0
DA:503,0
DA:504,0
DA:505,0
DA:506,0
DA:507,0
DA:508,0
DA:509,0
DA:512,0
DA:513,0
DA:514,0
DA:515,0
DA:516,0
DA:517,0
DA:518,0
DA:521,0
DA:522,0
DA:523,0
DA:524,0
DA:525,0
DA:526,0
DA:527,0
DA:528,0
DA:529,0
DA:530,0
DA:531,0
DA:532,0
DA:533,0
DA:534,0
DA:535,0
DA:536,0
DA:537,0
DA:538,0
DA:539,0
DA:540,0
DA:541,0
DA:542,0
DA:543,0
DA:544,0
DA:545,0
DA:546,0
DA:547,0
DA:548,0
DA:549,0
DA:550,0
DA:552,0
DA:553,0
DA:554,0
DA:555,0
DA:556,0
DA:557,0
DA:558,0
DA:559,0
DA:560,0
DA:563,2
DA:564,2
DA:565,2
DA:566,2
DA:567,3
DA:568,2
DA:569,3
DA:570,2
DA:571,1
DA:572,1
DA:573,1
DA:574,1
DA:575,1
DA:577,0
DA:579,1
DA:580,2
BRF:0
BRH:0
LF:369
LH:147
end_of_record
SF:/Volumes/Everything/Development/openrouter_api/src/client/config.rs
FN:52,_RNvMNtNtCsgl6iEIT30H0_14openrouter_api6client6configNtB2_12SecureApiKey16to_bearer_header
FN:47,_RNvMNtNtCsgl6iEIT30H0_14openrouter_api6client6configNtB2_12SecureApiKey6as_str
FN:100,_RNvMs0_NtNtCsgl6iEIT30H0_14openrouter_api6client6configNtB5_12ClientConfig13build_headers
FN:128,_RNvMs0_NtNtCsgl6iEIT30H0_14openrouter_api6client6configNtB5_12ClientConfig13to_api_config
FN:170,_RNvMs2_NtNtCsgl6iEIT30H0_14openrouter_api6client6configNtB5_11RetryConfig18with_total_timeout
FN:176,_RNvMs2_NtNtCsgl6iEIT30H0_14openrouter_api6client6configNtB5_11RetryConfig23with_max_retry_interval
FN:156,_RNvXs1_NtNtCsgl6iEIT30H0_14openrouter_api6client6configNtB5_11RetryConfigNtNtCs1FLWZe5rD62_4core7default7Default7default
FN:58,_RNvXs_NtNtCsgl6iEIT30H0_14openrouter_api6client6configNtB4_12SecureApiKeyNtNtCs1FLWZe5rD62_4core3fmt5Debug3fmt
FN:21,_RINvMNtNtCsgl6iEIT30H0_14openrouter_api6client6configNtB3_12SecureApiKey3newNtNtCsk11oWLwBebd_5alloc6string6StringEB7_
FN:104,_RNCNvMs0_NtNtCsgl6iEIT30H0_14openrouter_api6client6configNtB7_12ClientConfig13build_headers0Bb_
FN:116,_RNCNvMs0_NtNtCsgl6iEIT30H0_14openrouter_api6client6configNtB7_12ClientConfig13build_headerss0_0Bb_
FN:121,_RNCNvMs0_NtNtCsgl6iEIT30H0_14openrouter_api6client6configNtB7_12ClientConfig13build_headerss1_0Bb_
FN:111,_RNCNvMs0_NtNtCsgl6iEIT30H0_14openrouter_api6client6configNtB7_12ClientConfig13build_headerss_0Bb_
FN:21,_RINvMNtNtCsgYtBEIaUujk_14openrouter_api6client6configNtB3_12SecureApiKey3newNtNtCsk11oWLwBebd_5alloc6string6StringEB7_
FN:21,_RINvMNtNtCsgYtBEIaUujk_14openrouter_api6client6configNtB3_12SecureApiKey3newReEB7_
FN:104,_RNCNvMs0_NtNtCsgYtBEIaUujk_14openrouter_api6client6configNtB7_12ClientConfig13build_headers0Bb_
FN:116,_RNCNvMs0_NtNtCsgYtBEIaUujk_14openrouter_api6client6configNtB7_12ClientConfig13build_headerss0_0Bb_
FN:121,_RNCNvMs0_NtNtCsgYtBEIaUujk_14openrouter_api6client6configNtB7_12ClientConfig13build_headerss1_0Bb_
FN:111,_RNCNvMs0_NtNtCsgYtBEIaUujk_14openrouter_api6client6configNtB7_12ClientConfig13build_headerss_0Bb_
FN:52,_RNvMNtNtCsgYtBEIaUujk_14openrouter_api6client6configNtB2_12SecureApiKey16to_bearer_header
FN:47,_RNvMNtNtCsgYtBEIaUujk_14openrouter_api6client6configNtB2_12SecureApiKey6as_str
FN:100,_RNvMs0_NtNtCsgYtBEIaUujk_14openrouter_api6client6configNtB5_12ClientConfig13build_headers
FN:128,_RNvMs0_NtNtCsgYtBEIaUujk_14openrouter_api6client6configNtB5_12ClientConfig13to_api_config
FN:170,_RNvMs2_NtNtCsgYtBEIaUujk_14openrouter_api6client6configNtB5_11RetryConfig18with_total_timeout
FN:176,_RNvMs2_NtNtCsgYtBEIaUujk_14openrouter_api6client6configNtB5_11RetryConfig23with_max_retry_interval
FN:156,_RNvXs1_NtNtCsgYtBEIaUujk_14openrouter_api6client6configNtB5_11RetryConfigNtNtCs1FLWZe5rD62_4core7default7Default7default
FN:58,_RNvXs_NtNtCsgYtBEIaUujk_14openrouter_api6client6configNtB4_12SecureApiKeyNtNtCs1FLWZe5rD62_4core3fmt5Debug3fmt
FNDA:0,_RNvMNtNtCsgl6iEIT30H0_14openrouter_api6client6configNtB2_12SecureApiKey16to_bearer_header
FNDA:0,_RNvMNtNtCsgl6iEIT30H0_14openrouter_api6client6configNtB2_12SecureApiKey6as_str
FNDA:0,_RNvMs0_NtNtCsgl6iEIT30H0_14openrouter_api6client6configNtB5_12ClientConfig13build_headers
FNDA:0,_RNvMs0_NtNtCsgl6iEIT30H0_14openrouter_api6client6configNtB5_12ClientConfig13to_api_config
FNDA:0,_RNvMs2_NtNtCsgl6iEIT30H0_14openrouter_api6client6configNtB5_11RetryConfig18with_total_timeout
FNDA:0,_RNvMs2_NtNtCsgl6iEIT30H0_14openrouter_api6client6configNtB5_11RetryConfig23with_max_retry_interval
FNDA:1,_RNvXs1_NtNtCsgl6iEIT30H0_14openrouter_api6client6configNtB5_11RetryConfigNtNtCs1FLWZe5rD62_4core7default7Default7default
FNDA:0,_RNvXs_NtNtCsgl6iEIT30H0_14openrouter_api6client6configNtB4_12SecureApiKeyNtNtCs1FLWZe5rD62_4core3fmt5Debug3fmt
FNDA:0,_RINvMNtNtCsgl6iEIT30H0_14openrouter_api6client6configNtB3_12SecureApiKey3newNtNtCsk11oWLwBebd_5alloc6string6StringEB7_
FNDA:0,_RNCNvMs0_NtNtCsgl6iEIT30H0_14openrouter_api6client6configNtB7_12ClientConfig13build_headers0Bb_
FNDA:0,_RNCNvMs0_NtNtCsgl6iEIT30H0_14openrouter_api6client6configNtB7_12ClientConfig13build_headerss0_0Bb_
FNDA:0,_RNCNvMs0_NtNtCsgl6iEIT30H0_14openrouter_api6client6configNtB7_12ClientConfig13build_headerss1_0Bb_
FNDA:0,_RNCNvMs0_NtNtCsgl6iEIT30H0_14openrouter_api6client6configNtB7_12ClientConfig13build_headerss_0Bb_
FNDA:3,_RINvMNtNtCsgYtBEIaUujk_14openrouter_api6client6configNtB3_12SecureApiKey3newNtNtCsk11oWLwBebd_5alloc6string6StringEB7_
FNDA:29,_RINvMNtNtCsgYtBEIaUujk_14openrouter_api6client6configNtB3_12SecureApiKey3newReEB7_
FNDA:0,_RNCNvMs0_NtNtCsgYtBEIaUujk_14openrouter_api6client6configNtB7_12ClientConfig13build_headers0Bb_
FNDA:0,_RNCNvMs0_NtNtCsgYtBEIaUujk_14openrouter_api6client6configNtB7_12ClientConfig13build_headerss0_0Bb_
FNDA:0,_RNCNvMs0_NtNtCsgYtBEIaUujk_14openrouter_api6client6configNtB7_12ClientConfig13build_headerss1_0Bb_
FNDA:1,_RNCNvMs0_NtNtCsgYtBEIaUujk_14openrouter_api6client6configNtB7_12ClientConfig13build_headerss_0Bb_
FNDA:26,_RNvMNtNtCsgYtBEIaUujk_14openrouter_api6client6configNtB2_12SecureApiKey16to_bearer_header
FNDA:3,_RNvMNtNtCsgYtBEIaUujk_14openrouter_api6client6configNtB2_12SecureApiKey6as_str
FNDA:26,_RNvMs0_NtNtCsgYtBEIaUujk_14openrouter_api6client6configNtB5_12ClientConfig13build_headers
FNDA:13,_RNvMs0_NtNtCsgYtBEIaUujk_14openrouter_api6client6configNtB5_12ClientConfig13to_api_config
FNDA:1,_RNvMs2_NtNtCsgYtBEIaUujk_14openrouter_api6client6configNtB5_11RetryConfig18with_total_timeout
FNDA:1,_RNvMs2_NtNtCsgYtBEIaUujk_14openrouter_api6client6configNtB5_11RetryConfig23with_max_retry_interval
FNDA:36,_RNvXs1_NtNtCsgYtBEIaUujk_14openrouter_api6client6configNtB5_11RetryConfigNtNtCs1FLWZe5rD62_4core7default7Default7default
FNDA:1,_RNvXs_NtNtCsgYtBEIaUujk_14openrouter_api6client6configNtB4_12SecureApiKeyNtNtCs1FLWZe5rD62_4core3fmt5Debug3fmt
FNF:13
FNH:10
DA:21,32
DA:22,32
DA:25,32
DA:26,2
DA:27,30
DA:30,30
DA:31,3
DA:32,3
DA:33,3
DA:34,27
DA:37,27
DA:38,1
DA:39,1
DA:40,1
DA:41,26
DA:43,26
DA:44,32
DA:47,3
DA:48,3
DA:49,3
DA:52,26
DA:53,26
DA:54,26
DA:58,1
DA:60,1
DA:61,1
DA:62,1
DA:63,1
DA:100,26
DA:101,26
DA:102,26
DA:103,25
DA:104,25
DA:105,25
DA:106,1
DA:108,26
DA:109,26
DA:110,9
DA:111,9
DA:112,8
DA:113,17
DA:114,25
DA:115,8
DA:116,8
DA:117,8
DA:118,17
DA:119,25
DA:120,1
DA:121,1
DA:122,1
DA:123,24
DA:124,25
DA:125,26
DA:128,13
DA:130,13
DA:131,13
DA:132,13
DA:133,13
DA:134,13
DA:135,13
DA:136,13
DA:137,13
DA:139,13
DA:156,37
DA:157,37
DA:158,37
DA:159,37
DA:160,37
DA:161,37
DA:162,37
DA:163,37
DA:164,37
DA:165,37
DA:170,1
DA:171,1
DA:172,1
DA:173,1
DA:176,1
DA:177,1
DA:178,1
DA:179,1
BRF:0
BRH:0
LF:85
LH:82
end_of_record
SF:/Volumes/Everything/Development/openrouter_api/src/client/tests.rs
FN:208,_RNCNvNtNtNtCsgYtBEIaUujk_14openrouter_api6client5tests5testss_45test_client_config_build_headers_with_api_key0B9_
FN:189,_RNCNvNtNtNtCsgYtBEIaUujk_14openrouter_api6client5tests5testss_48test_client_config_build_headers_without_api_key0B9_
FN:228,_RNCNvNtNtNtCsgYtBEIaUujk_14openrouter_api6client5tests5testss_49test_client_config_build_headers_with_all_options0B9_
FN:92,_RNvNtNtNtCsgYtBEIaUujk_14openrouter_api6client5tests5testss_24test_client_new_creation
FN:72,_RNvNtNtNtCsgYtBEIaUujk_14openrouter_api6client5tests5testss_25test_retry_config_default
FN:41,_RNvNtNtNtCsgYtBEIaUujk_14openrouter_api6client5tests5testss_25test_secure_api_key_empty
FN:81,_RNvNtNtNtCsgYtBEIaUujk_14openrouter_api6client5tests5testss_28test_client_default_creation
FN:143,_RNvNtNtNtCsgYtBEIaUujk_14openrouter_api6client5tests5testss_29test_client_with_retry_config
FN:25,_RNvNtNtNtCsgYtBEIaUujk_14openrouter_api6client5tests5testss_29test_secure_api_key_too_short
FN:168,_RNvNtNtNtCsgYtBEIaUujk_14openrouter_api6client5tests5testss_30test_client_with_api_key_valid
FN:123,_RNvNtNtNtCsgYtBEIaUujk_14openrouter_api6client5tests5testss_31test_client_configuration_chain
FN:103,_RNvNtNtNtCsgYtBEIaUujk_14openrouter_api6client5tests5testss_31test_client_with_base_url_valid
FN:178,_RNvNtNtNtCsgYtBEIaUujk_14openrouter_api6client5tests5testss_32test_client_with_api_key_invalid
FN:115,_RNvNtNtNtCsgYtBEIaUujk_14openrouter_api6client5tests5testss_33test_client_with_base_url_invalid
FN:64,_RNvNtNtNtCsgYtBEIaUujk_14openrouter_api6client5tests5testss_33test_secure_api_key_bearer_header
FN:11,_RNvNtNtNtCsgYtBEIaUujk_14openrouter_api6client5tests5testss_34test_secure_api_key_creation_valid
FN:33,_RNvNtNtNtCsgYtBEIaUujk_14openrouter_api6client5tests5testss_34test_secure_api_key_invalid_prefix
FN:55,_RNvNtNtNtCsgYtBEIaUujk_14openrouter_api6client5tests5testss_35test_secure_api_key_debug_redaction
FN:48,_RNvNtNtNtCsgYtBEIaUujk_14openrouter_api6client5tests5testss_35test_secure_api_key_whitespace_only
FN:273,_RNvNtNtNtCsgYtBEIaUujk_14openrouter_api6client5tests5testss_37test_client_max_response_bytes_config
FN:18,_RNvNtNtNtCsgYtBEIaUujk_14openrouter_api6client5tests5testss_43test_secure_api_key_creation_with_or_prefix
FN:208,_RNvNtNtNtCsgYtBEIaUujk_14openrouter_api6client5tests5testss_45test_client_config_build_headers_with_api_key
FN:189,_RNvNtNtNtCsgYtBEIaUujk_14openrouter_api6client5tests5testss_48test_client_config_build_headers_without_api_key
FN:228,_RNvNtNtNtCsgYtBEIaUujk_14openrouter_api6client5tests5testss_49test_client_config_build_headers_with_all_options
FN:254,_RNvNtNtNtCsgYtBEIaUujk_14openrouter_api6client5tests5testss_54test_client_config_build_headers_invalid_header_values
FNDA:1,_RNCNvNtNtNtCsgYtBEIaUujk_14openrouter_api6client5tests5testss_45test_client_config_build_headers_with_api_key0B9_
FNDA:1,_RNCNvNtNtNtCsgYtBEIaUujk_14openrouter_api6client5tests5testss_48test_client_config_build_headers_without_api_key0B9_
FNDA:1,_RNCNvNtNtNtCsgYtBEIaUujk_14openrouter_api6client5tests5testss_49test_client_config_build_headers_with_all_options0B9_
FNDA:1,_RNvNtNtNtCsgYtBEIaUujk_14openrouter_api6client5tests5testss_24test_client_new_creation
FNDA:1,_RNvNtNtNtCsgYtBEIaUujk_14openrouter_api6client5tests5testss_25test_retry_config_default
FNDA:1,_RNvNtNtNtCsgYtBEIaUujk_14openrouter_api6client5tests5testss_25test_secure_api_key_empty
FNDA:1,_RNvNtNtNtCsgYtBEIaUujk_14openrouter_api6client5tests5testss_28test_client_default_creation
FNDA:1,_RNvNtNtNtCsgYtBEIaUujk_14openrouter_api6client5tests5testss_29test_client_with_retry_config
FNDA:1,_RNvNtNtNtCsgYtBEIaUujk_14openrouter_api6client5tests5testss_29test_secure_api_key_too_short
FNDA:1,_RNvNtNtNtCsgYtBEIaUujk_14openrouter_api6client5tests5testss_30test_client_with_api_key_valid
FNDA:1,_RNvNtNtNtCsgYtBEIaUujk_14openrouter_api6client5tests5testss_31test_client_configuration_chain
FNDA:1,_RNvNtNtNtCsgYtBEIaUujk_14openrouter_api6client5tests5testss_31test_client_with_base_url_valid
FNDA:1,_RNvNtNtNtCsgYtBEIaUujk_14openrouter_api6client5tests5testss_32test_client_with_api_key_invalid
FNDA:1,_RNvNtNtNtCsgYtBEIaUujk_14openrouter_api6client5tests5testss_33test_client_with_base_url_invalid
FNDA:1,_RNvNtNtNtCsgYtBEIaUujk_14openrouter_api6client5tests5testss_33test_secure_api_key_bearer_header
FNDA:1,_RNvNtNtNtCsgYtBEIaUujk_14openrouter_api6client5tests5testss_34test_secure_api_key_creation_valid
FNDA:1,_RNvNtNtNtCsgYtBEIaUujk_14openrouter_api6client5tests5testss_34test_secure_api_key_invalid_prefix
FNDA:1,_RNvNtNtNtCsgYtBEIaUujk_14openrouter_api6client5tests5testss_35test_secure_api_key_debug_redaction
FNDA:1,_RNvNtNtNtCsgYtBEIaUujk_14openrouter_api6client5tests5testss_35test_secure_api_key_whitespace_only
FNDA:1,_RNvNtNtNtCsgYtBEIaUujk_14openrouter_api6client5tests5testss_37test_client_max_response_bytes_config
FNDA:1,_RNvNtNtNtCsgYtBEIaUujk_14openrouter_api6client5tests5testss_43test_secure_api_key_creation_with_or_prefix
FNDA:1,_RNvNtNtNtCsgYtBEIaUujk_14openrouter_api6client5tests5testss_45test_client_config_build_headers_with_api_key
FNDA:1,_RNvNtNtNtCsgYtBEIaUujk_14openrouter_api6client5tests5testss_48test_client_config_build_headers_without_api_key
FNDA:1,_RNvNtNtNtCsgYtBEIaUujk_14openrouter_api6client5tests5testss_49test_client_config_build_headers_with_all_options
FNDA:1,_RNvNtNtNtCsgYtBEIaUujk_14openrouter_api6client5tests5testss_54test_client_config_build_headers_invalid_header_values
FNF:25
FNH:25
DA:11,1
DA:12,1
DA:13,1
DA:14,1
DA:15,1
DA:18,1
DA:19,1
DA:20,1
DA:21,1
DA:22,1
DA:25,1
DA:26,1
DA:27,1
DA:28,1
DA:29,1
DA:30,1
DA:33,1
DA:34,1
DA:35,1
DA:36,1
DA:37,1
DA:38,1
DA:41,1
DA:42,1
DA:43,1
DA:44,1
DA:45,1
DA:48,1
DA:49,1
DA:50,1
DA:51,1
DA:52,1
DA:55,1
DA:56,1
DA:57,1
DA:58,1
DA:59,1
DA:60,1
DA:61,1
DA:64,1
DA:65,1
DA:66,1
DA:67,1
DA:68,1
DA:69,1
DA:72,1
DA:73,1
DA:74,1
DA:75,1
DA:76,1
DA:77,1
DA:78,1
DA:81,1
DA:82,1
DA:83,1
DA:84,1
DA:85,1
DA:88,1
DA:89,1
DA:92,1
DA:93,1
DA:94,1
DA:95,1
DA:96,1
DA:99,1
DA:100,1
DA:103,1
DA:104,1
DA:105,1
DA:106,1
DA:107,1
DA:108,1
DA:109,1
DA:112,1
DA:115,1
DA:116,1
DA:117,1
DA:118,1
DA:119,1
DA:120,1
DA:123,1
DA:124,1
DA:125,1
DA:126,1
DA:127,1
DA:128,1
DA:129,1
DA:130,1
DA:132,1
DA:133,1
DA:134,1
DA:136,1
DA:138,1
DA:139,1
DA:140,1
DA:143,1
DA:144,1
DA:145,1
DA:146,1
DA:147,1
DA:148,1
DA:149,1
DA:150,1
DA:151,1
DA:153,1
DA:154,1
DA:155,1
DA:156,1
DA:158,1
DA:159,1
DA:160,1
DA:161,1
DA:163,1
DA:165,1
DA:168,1
DA:169,1
DA:170,1
DA:171,1
DA:173,1
DA:174,1
DA:175,1
DA:178,1
DA:179,1
DA:180,1
DA:181,1
DA:183,1
DA:184,1
DA:185,1
DA:186,1
DA:189,1
DA:190,1
DA:191,1
DA:192,1
DA:193,1
DA:194,1
DA:195,1
DA:196,1
DA:197,1
DA:198,1
DA:199,1
DA:201,1
DA:202,1
DA:203,1
DA:204,1
DA:205,1
DA:208,1
DA:209,1
DA:210,1
DA:211,1
DA:212,1
DA:213,1
DA:214,1
DA:215,1
DA:216,1
DA:217,1
DA:218,1
DA:219,1
DA:221,1
DA:222,1
DA:223,1
DA:224,1
DA:225,1
DA:228,1
DA:229,1
DA:230,1
DA:231,1
DA:232,1
DA:233,1
DA:234,1
DA:235,1
DA:236,1
DA:237,1
DA:238,1
DA:239,1
DA:241,1
DA:242,1
DA:243,1
DA:244,1
DA:245,1
DA:246,1
DA:248,1
DA:249,1
DA:250,1
DA:251,1
DA:254,1
DA:255,1
DA:256,1
DA:257,1
DA:258,1
DA:259,1
DA:260,1
DA:261,1
DA:262,1
DA:263,1
DA:264,1
DA:265,1
DA:267,1
DA:268,1
DA:269,1
DA:270,1
DA:273,1
DA:274,1
DA:276,1
DA:277,1
BRF:0
BRH:0
LF:210
LH:210
end_of_record
SF:/Volumes/Everything/Development/openrouter_api/src/error.rs
FN:78,_RNvMNtCsgl6iEIT30H0_14openrouter_api5errorNtB2_5Error13from_response
FN:85,_RNvMNtCsgl6iEIT30H0_14openrouter_api5errorNtB2_5Error18from_response_text
FN:119,_RNvMNtCsgl6iEIT30H0_14openrouter_api5errorNtB2_5Error26from_response_with_context
FN:78,_RNCNvMNtCsgYtBEIaUujk_14openrouter_api5errorNtB4_5Error13from_response0B6_
FN:123,_RNCNvMNtCsgYtBEIaUujk_14openrouter_api5errorNtB4_5Error26from_response_with_context0B6_
FN:78,_RNvMNtCsgYtBEIaUujk_14openrouter_api5errorNtB2_5Error13from_response
FN:119,_RNvMNtCsgYtBEIaUujk_14openrouter_api5errorNtB2_5Error26from_response_with_context
FN:85,_RNvMNtCsgYtBEIaUujk_14openrouter_api5errorNtB2_5Error18from_response_text
FNDA:0,_RNvMNtCsgl6iEIT30H0_14openrouter_api5errorNtB2_5Error13from_response
FNDA:0,_RNvMNtCsgl6iEIT30H0_14openrouter_api5errorNtB2_5Error18from_response_text
FNDA:0,_RNvMNtCsgl6iEIT30H0_14openrouter_api5errorNtB2_5Error26from_response_with_context
FNDA:0,_RNCNvMNtCsgYtBEIaUujk_14openrouter_api5errorNtB4_5Error13from_response0B6_
FNDA:0,_RNCNvMNtCsgYtBEIaUujk_14openrouter_api5errorNtB4_5Error26from_response_with_context0B6_
FNDA:0,_RNvMNtCsgYtBEIaUujk_14openrouter_api5errorNtB2_5Error13from_response
FNDA:0,_RNvMNtCsgYtBEIaUujk_14openrouter_api5errorNtB2_5Error26from_response_with_context
FNDA:2,_RNvMNtCsgYtBEIaUujk_14openrouter_api5errorNtB2_5Error18from_response_text
FNF:5
FNH:1
DA:78,0
DA:79,0
DA:80,0
DA:81,0
DA:82,0
DA:85,2
DA:87,2
DA:88,0
DA:89,0
DA:90,0
DA:91,0
DA:92,0
DA:93,0
DA:94,0
DA:95,0
DA:96,0
DA:97,2
DA:100,2
DA:101,1
DA:102,1
DA:103,1
DA:104,1
DA:105,1
DA:107,1
DA:108,1
DA:109,1
DA:110,1
DA:111,1
DA:112,1
DA:113,1
DA:114,1
DA:115,1
DA:116,2
DA:119,0
DA:120,0
DA:121,0
DA:122,0
DA:123,0
DA:124,0
DA:125,0
DA:127,0
DA:131,0
DA:133,0
DA:136,0
DA:137,0
DA:138,0
DA:139,0
DA:141,0
DA:142,0
DA:143,0
DA:144,0
DA:145,0
DA:146,0
DA:147,0
DA:149,0
DA:150,0
BRF:0
BRH:0
LF:58
LH:19
end_of_record
SF:/Volumes/Everything/Development/openrouter_api/src/error/tests.rs
FN:142,_RINvNvNtNtNtCsgYtBEIaUujk_14openrouter_api5error5tests5testss_32test_error_trait_implementations11assert_sendNtB8_5ErrorEBa_
FN:143,_RINvNvNtNtNtCsgYtBEIaUujk_14openrouter_api5error5tests5testss_32test_error_trait_implementations11assert_syncNtB8_5ErrorEBa_
FN:144,_RINvNvNtNtNtCsgYtBEIaUujk_14openrouter_api5error5tests5testss_32test_error_trait_implementations12assert_errorNtB8_5ErrorEBa_
FN:166,_RNvNtNtNtCsgYtBEIaUujk_14openrouter_api5error5tests5testss_16test_error_chain
FN:132,_RNvNtNtNtCsgYtBEIaUujk_14openrouter_api5error5tests5testss_16test_error_debug
FN:55,_RNvNtNtNtCsgYtBEIaUujk_14openrouter_api5error5tests5testss_17test_config_error
FN:119,_RNvNtNtNtCsgYtBEIaUujk_14openrouter_api5error5tests5testss_18test_error_display
FN:66,_RNvNtNtNtCsgYtBEIaUujk_14openrouter_api5error5tests5testss_20test_http_error_type
FN:108,_RNvNtNtNtCsgYtBEIaUujk_14openrouter_api5error5tests5testss_20test_streaming_error
FN:82,_RNvNtNtNtCsgYtBEIaUujk_14openrouter_api5error5tests5testss_24test_serialization_error
FN:181,_RNvNtNtNtCsgYtBEIaUujk_14openrouter_api5error5tests5testss_26test_error_metadata_access
FN:152,_RNvNtNtNtCsgYtBEIaUujk_14openrouter_api5error5tests5testss_26test_from_serde_json_error
FN:10,_RNvNtNtNtCsgYtBEIaUujk_14openrouter_api5error5tests5testss_27test_api_error_construction
FN:27,_RNvNtNtNtCsgYtBEIaUujk_14openrouter_api5error5tests5testss_28test_api_error_with_metadata
FN:207,_RNvNtNtNtCsgYtBEIaUujk_14openrouter_api5error5tests5testss_28test_error_types_compilation
FN:97,_RNvNtNtNtCsgYtBEIaUujk_14openrouter_api5error5tests5testss_28test_schema_validation_error
FN:140,_RNvNtNtNtCsgYtBEIaUujk_14openrouter_api5error5tests5testss_32test_error_trait_implementations
FNDA:1,_RINvNvNtNtNtCsgYtBEIaUujk_14openrouter_api5error5tests5testss_32test_error_trait_implementations11assert_sendNtB8_5ErrorEBa_
FNDA:1,_RINvNvNtNtNtCsgYtBEIaUujk_14openrouter_api5error5tests5testss_32test_error_trait_implementations11assert_syncNtB8_5ErrorEBa_
FNDA:1,_RINvNvNtNtNtCsgYtBEIaUujk_14openrouter_api5error5tests5testss_32test_error_trait_implementations12assert_errorNtB8_5ErrorEBa_
FNDA:1,_RNvNtNtNtCsgYtBEIaUujk_14openrouter_api5error5tests5testss_16test_error_chain
FNDA:1,_RNvNtNtNtCsgYtBEIaUujk_14openrouter_api5error5tests5testss_16test_error_debug
FNDA:1,_RNvNtNtNtCsgYtBEIaUujk_14openrouter_api5error5tests5testss_17test_config_error
FNDA:1,_RNvNtNtNtCsgYtBEIaUujk_14openrouter_api5error5tests5testss_18test_error_display
FNDA:1,_RNvNtNtNtCsgYtBEIaUujk_14openrouter_api5error5tests5testss_20test_http_error_type
FNDA:1,_RNvNtNtNtCsgYtBEIaUujk_14openrouter_api5error5tests5testss_20test_streaming_error
FNDA:1,_RNvNtNtNtCsgYtBEIaUujk_14openrouter_api5error5tests5testss_24test_serialization_error
FNDA:1,_RNvNtNtNtCsgYtBEIaUujk_14openrouter_api5error5tests5testss_26test_error_metadata_access
FNDA:1,_RNvNtNtNtCsgYtBEIaUujk_14openrouter_api5error5tests5testss_26test_from_serde_json_error
FNDA:1,_RNvNtNtNtCsgYtBEIaUujk_14openrouter_api5error5tests5testss_27test_api_error_construction
FNDA:1,_RNvNtNtNtCsgYtBEIaUujk_14openrouter_api5error5tests5testss_28test_api_error_with_metadata
FNDA:1,_RNvNtNtNtCsgYtBEIaUujk_14openrouter_api5error5tests5testss_28test_error_types_compilation
FNDA:1,_RNvNtNtNtCsgYtBEIaUujk_14openrouter_api5error5tests5testss_28test_schema_validation_error
FNDA:1,_RNvNtNtNtCsgYtBEIaUujk_14openrouter_api5error5tests5testss_32test_error_trait_implementations
FNF:17
FNH:17
DA:10,1
DA:11,1
DA:12,1
DA:13,1
DA:14,1
DA:15,1
DA:17,1
DA:18,1
DA:19,1
DA:20,1
DA:22,0
DA:24,1
DA:27,1
DA:28,1
DA:29,1
DA:30,1
DA:33,1
DA:34,1
DA:35,1
DA:36,1
DA:37,1
DA:39,1
DA:41,1
DA:42,1
DA:43,1
DA:45,1
DA:46,1
DA:47,1
DA:48,1
DA:50,0
DA:52,1
DA:55,1
DA:56,1
DA:57,1
DA:58,1
DA:59,1
DA:61,0
DA:63,1
DA:66,1
DA:69,1
DA:70,1
DA:71,1
DA:72,1
DA:73,1
DA:74,1
DA:75,1
DA:78,1
DA:79,1
DA:82,1
DA:84,1
DA:85,1
DA:86,1
DA:88,1
DA:89,1
DA:90,1
DA:91,1
DA:92,0
DA:94,1
DA:97,1
DA:98,1
DA:99,1
DA:100,1
DA:101,1
DA:103,0
DA:105,1
DA:108,1
DA:109,1
DA:110,1
DA:111,1
DA:112,1
DA:114,0
DA:116,1
DA:119,1
DA:120,1
DA:121,1
DA:122,1
DA:123,1
DA:124,1
DA:126,1
DA:127,1
DA:128,1
DA:129,1
DA:132,1
DA:133,1
DA:134,1
DA:135,1
DA:136,1
DA:137,1
DA:140,1
DA:142,1
DA:143,1
DA:144,1
DA:146,1
DA:147,1
DA:148,1
DA:149,1
DA:152,1
DA:153,1
DA:154,1
DA:155,1
DA:157,1
DA:158,1
DA:159,1
DA:160,1
DA:161,0
DA:163,1
DA:166,1
DA:168,1
DA:169,1
DA:170,1
DA:171,1
DA:172,1
DA:173,1
DA:175,1
DA:176,1
DA:177,1
DA:178,1
DA:181,1
DA:182,1
DA:183,1
DA:184,1
DA:187,1
DA:188,1
DA:189,1
DA:190,1
DA:191,1
DA:194,1
DA:196,1
DA:198,1
DA:199,1
DA:200,1
DA:202,0
DA:204,1
DA:207,1
DA:209,1
DA:210,1
DA:211,1
DA:212,1
DA:213,1
DA:215,1
DA:216,1
DA:217,1
DA:218,1
DA:219,1
DA:220,1
DA:221,1
DA:222,1
DA:225,1
BRF:0
BRH:0
LF:148
LH:140
end_of_record
SF:/Volumes/Everything/Development/openrouter_api/src/mcp/client.rs
FN:307,_RNvNtNtNtCsgYtBEIaUujk_14openrouter_api3mcp6client5tests18create_test_config
FN:341,_RNvNtNtNtCsgYtBEIaUujk_14openrouter_api3mcp6client5testss_20test_request_timeout
FN:407,_RNvNtNtNtCsgYtBEIaUujk_14openrouter_api3mcp6client5testss_23test_request_size_limit
FN:375,_RNvNtNtNtCsgYtBEIaUujk_14openrouter_api3mcp6client5testss_24test_response_size_limit
FN:317,_RNvNtNtNtCsgYtBEIaUujk_14openrouter_api3mcp6client5testss_27test_mcp_client_with_config
FN:456,_RNvNtNtNtCsgYtBEIaUujk_14openrouter_api3mcp6client5testss_32test_concurrent_request_limiting
FN:329,_RNvNtNtNtCsgYtBEIaUujk_14openrouter_api3mcp6client5testss_35test_mcp_client_with_default_config
FN:532,_RNvNtNtNtCsgYtBEIaUujk_14openrouter_api3mcp6client5testss_37test_content_length_header_validation
FN:502,_RNvNtNtNtCsgYtBEIaUujk_14openrouter_api3mcp6client5testss_37test_successful_request_within_limits
FN:565,_RNvNtNtNtCsgYtBEIaUujk_14openrouter_api3mcp6client5testss_46test_response_size_limit_with_chunked_encoding
FN:56,_RNvMNtNtCsgYtBEIaUujk_14openrouter_api3mcp6clientNtB2_9MCPClient10initialize
FN:51,_RNvMNtNtCsgYtBEIaUujk_14openrouter_api3mcp6clientNtB2_9MCPClient11generate_id
FN:158,_RNvMNtNtCsgYtBEIaUujk_14openrouter_api3mcp6clientNtB2_9MCPClient12send_request
FN:241,_RNCNCNvMNtNtCsgYtBEIaUujk_14openrouter_api3mcp6clientNtB6_9MCPClient13send_response00Ba_
FN:264,_RNCNCNvMNtNtCsgYtBEIaUujk_14openrouter_api3mcp6clientNtB6_9MCPClient13send_response0s_0Ba_
FN:153,_RNCNvMNtNtCsgYtBEIaUujk_14openrouter_api3mcp6clientNtB4_9MCPClient12capabilities0B8_
FN:84,_RNCNvMNtNtCsgYtBEIaUujk_14openrouter_api3mcp6clientNtB4_9MCPClient12get_resource0B8_
FN:235,_RNCNvMNtNtCsgYtBEIaUujk_14openrouter_api3mcp6clientNtB4_9MCPClient13send_response0B8_
FN:121,_RNCNvMNtNtCsgYtBEIaUujk_14openrouter_api3mcp6clientNtB4_9MCPClient14execute_prompt0B8_
FN:292,_RNCNvMNtNtCsgYtBEIaUujk_14openrouter_api3mcp6clientNtB4_9MCPClient18ensure_initialized0B8_
FN:138,_RNCNvMNtNtCsgYtBEIaUujk_14openrouter_api3mcp6clientNtB4_9MCPClient19respond_to_sampling0B8_
FN:101,_RNCNvMNtNtCsgYtBEIaUujk_14openrouter_api3mcp6clientNtB4_9MCPClient9tool_call0B8_
FN:153,_RNvMNtNtCsgYtBEIaUujk_14openrouter_api3mcp6clientNtB2_9MCPClient12capabilities
FN:84,_RNvMNtNtCsgYtBEIaUujk_14openrouter_api3mcp6clientNtB2_9MCPClient12get_resource
FN:235,_RNvMNtNtCsgYtBEIaUujk_14openrouter_api3mcp6clientNtB2_9MCPClient13send_response
FN:118,_RNvMNtNtCsgYtBEIaUujk_14openrouter_api3mcp6clientNtB2_9MCPClient14execute_prompt
FN:292,_RNvMNtNtCsgYtBEIaUujk_14openrouter_api3mcp6clientNtB2_9MCPClient18ensure_initialized
FN:138,_RNvMNtNtCsgYtBEIaUujk_14openrouter_api3mcp6clientNtB2_9MCPClient19respond_to_sampling
FN:101,_RNvMNtNtCsgYtBEIaUujk_14openrouter_api3mcp6clientNtB2_9MCPClient9tool_call
FN:484,_RNCNCNCNvNtNtNtCsgYtBEIaUujk_14openrouter_api3mcp6client5testss_32test_concurrent_request_limiting000Bd_
FN:481,_RNCNCNvNtNtNtCsgYtBEIaUujk_14openrouter_api3mcp6client5testss_32test_concurrent_request_limiting00Bb_
FN:491,_RNCNCNvNtNtNtCsgYtBEIaUujk_14openrouter_api3mcp6client5testss_32test_concurrent_request_limiting0s_0Bb_
FN:341,_RNCNvNtNtNtCsgYtBEIaUujk_14openrouter_api3mcp6client5testss_20test_request_timeout0B9_
FN:407,_RNCNvNtNtNtCsgYtBEIaUujk_14openrouter_api3mcp6client5testss_23test_request_size_limit0B9_
FN:375,_RNCNvNtNtNtCsgYtBEIaUujk_14openrouter_api3mcp6client5testss_24test_response_size_limit0B9_
FN:317,_RNCNvNtNtNtCsgYtBEIaUujk_14openrouter_api3mcp6client5testss_27test_mcp_client_with_config0B9_
FN:456,_RNCNvNtNtNtCsgYtBEIaUujk_14openrouter_api3mcp6client5testss_32test_concurrent_request_limiting0B9_
FN:329,_RNCNvNtNtNtCsgYtBEIaUujk_14openrouter_api3mcp6client5testss_35test_mcp_client_with_default_config0B9_
FN:532,_RNCNvNtNtNtCsgYtBEIaUujk_14openrouter_api3mcp6client5testss_37test_content_length_header_validation0B9_
FN:502,_RNCNvNtNtNtCsgYtBEIaUujk_14openrouter_api3mcp6client5testss_37test_successful_request_within_limits0B9_
FN:565,_RNCNvNtNtNtCsgYtBEIaUujk_14openrouter_api3mcp6client5testss_46test_response_size_limit_with_chunked_encoding0B9_
FN:271,_RINvMNtNtCsgYtBEIaUujk_14openrouter_api3mcp6clientNtB3_9MCPClient14parse_responseNtNtB5_5types18ServerCapabilitiesEB7_
FN:32,_RINvMNtNtCsgYtBEIaUujk_14openrouter_api3mcp6clientNtB3_9MCPClient15new_with_configNtNtCsk11oWLwBebd_5alloc6string6StringEB7_
FN:27,_RINvMNtNtCsgYtBEIaUujk_14openrouter_api3mcp6clientNtB3_9MCPClient3newNtNtCsk11oWLwBebd_5alloc6string6StringEB7_
FN:34,_RNCINvMNtNtCsgYtBEIaUujk_14openrouter_api3mcp6clientNtB5_9MCPClient15new_with_configNtNtCsk11oWLwBebd_5alloc6string6StringE0B9_
FN:39,_RNCINvMNtNtCsgYtBEIaUujk_14openrouter_api3mcp6clientNtB5_9MCPClient15new_with_configNtNtCsk11oWLwBebd_5alloc6string6StringEs_0B9_
FN:164,_RNCNCNvMNtNtCsgYtBEIaUujk_14openrouter_api3mcp6clientNtB6_9MCPClient12send_request00Ba_
FN:226,_RNCNCNvMNtNtCsgYtBEIaUujk_14openrouter_api3mcp6clientNtB6_9MCPClient12send_request0s0_0Ba_
FN:184,_RNCNCNvMNtNtCsgYtBEIaUujk_14openrouter_api3mcp6clientNtB6_9MCPClient12send_request0s_0Ba_
FN:59,_RNCNvMNtNtCsgYtBEIaUujk_14openrouter_api3mcp6clientNtB4_9MCPClient10initialize0B8_
FN:158,_RNCNvMNtNtCsgYtBEIaUujk_14openrouter_api3mcp6clientNtB4_9MCPClient12send_request0B8_
FNDA:8,_RNvNtNtNtCsgYtBEIaUujk_14openrouter_api3mcp6client5tests18create_test_config
FNDA:1,_RNvNtNtNtCsgYtBEIaUujk_14openrouter_api3mcp6client5testss_20test_request_timeout
FNDA:1,_RNvNtNtNtCsgYtBEIaUujk_14openrouter_api3mcp6client5testss_23test_request_size_limit
FNDA:1,_RNvNtNtNtCsgYtBEIaUujk_14openrouter_api3mcp6client5testss_24test_response_size_limit
FNDA:1,_RNvNtNtNtCsgYtBEIaUujk_14openrouter_api3mcp6client5testss_27test_mcp_client_with_config
FNDA:1,_RNvNtNtNtCsgYtBEIaUujk_14openrouter_api3mcp6client5testss_32test_concurrent_request_limiting
FNDA:1,_RNvNtNtNtCsgYtBEIaUujk_14openrouter_api3mcp6client5testss_35test_mcp_client_with_default_config
FNDA:1,_RNvNtNtNtCsgYtBEIaUujk_14openrouter_api3mcp6client5testss_37test_content_length_header_validation
FNDA:1,_RNvNtNtNtCsgYtBEIaUujk_14openrouter_api3mcp6client5testss_37test_successful_request_within_limits
FNDA:1,_RNvNtNtNtCsgYtBEIaUujk_14openrouter_api3mcp6client5testss_46test_response_size_limit_with_chunked_encoding
FNDA:8,_RNvMNtNtCsgYtBEIaUujk_14openrouter_api3mcp6clientNtB2_9MCPClient10initialize
FNDA:8,_RNvMNtNtCsgYtBEIaUujk_14openrouter_api3mcp6clientNtB2_9MCPClient11generate_id
FNDA:9,_RNvMNtNtCsgYtBEIaUujk_14openrouter_api3mcp6clientNtB2_9MCPClient12send_request
FNDA:0,_RNCNCNvMNtNtCsgYtBEIaUujk_14openrouter_api3mcp6clientNtB6_9MCPClient13send_response00Ba_
FNDA:0,_RNCNCNvMNtNtCsgYtBEIaUujk_14openrouter_api3mcp6clientNtB6_9MCPClient13send_response0s_0Ba_
FNDA:0,_RNCNvMNtNtCsgYtBEIaUujk_14openrouter_api3mcp6clientNtB4_9MCPClient12capabilities0B8_
FNDA:0,_RNCNvMNtNtCsgYtBEIaUujk_14openrouter_api3mcp6clientNtB4_9MCPClient12get_resource0B8_
FNDA:0,_RNCNvMNtNtCsgYtBEIaUujk_14openrouter_api3mcp6clientNtB4_9MCPClient13send_response0B8_
FNDA:0,_RNCNvMNtNtCsgYtBEIaUujk_14openrouter_api3mcp6clientNtB4_9MCPClient14execute_prompt0B8_
FNDA:0,_RNCNvMNtNtCsgYtBEIaUujk_14openrouter_api3mcp6clientNtB4_9MCPClient18ensure_initialized0B8_
FNDA:0,_RNCNvMNtNtCsgYtBEIaUujk_14openrouter_api3mcp6clientNtB4_9MCPClient19respond_to_sampling0B8_
FNDA:0,_RNCNvMNtNtCsgYtBEIaUujk_14openrouter_api3mcp6clientNtB4_9MCPClient9tool_call0B8_
FNDA:0,_RNvMNtNtCsgYtBEIaUujk_14openrouter_api3mcp6clientNtB2_9MCPClient12capabilities
FNDA:0,_RNvMNtNtCsgYtBEIaUujk_14openrouter_api3mcp6clientNtB2_9MCPClient12get_resource
FNDA:0,_RNvMNtNtCsgYtBEIaUujk_14openrouter_api3mcp6clientNtB2_9MCPClient13send_response
FNDA:0,_RNvMNtNtCsgYtBEIaUujk_14openrouter_api3mcp6clientNtB2_9MCPClient14execute_prompt
FNDA:0,_RNvMNtNtCsgYtBEIaUujk_14openrouter_api3mcp6clientNtB2_9MCPClient18ensure_initialized
FNDA:0,_RNvMNtNtCsgYtBEIaUujk_14openrouter_api3mcp6clientNtB2_9MCPClient19respond_to_sampling
FNDA:0,_RNvMNtNtCsgYtBEIaUujk_14openrouter_api3mcp6clientNtB2_9MCPClient9tool_call
FNDA:3,_RNCNCNCNvNtNtNtCsgYtBEIaUujk_14openrouter_api3mcp6client5testss_32test_concurrent_request_limiting000Bd_
FNDA:3,_RNCNCNvNtNtNtCsgYtBEIaUujk_14openrouter_api3mcp6client5testss_32test_concurrent_request_limiting00Bb_
FNDA:3,_RNCNCNvNtNtNtCsgYtBEIaUujk_14openrouter_api3mcp6client5testss_32test_concurrent_request_limiting0s_0Bb_
FNDA:1,_RNCNvNtNtNtCsgYtBEIaUujk_14openrouter_api3mcp6client5testss_20test_request_timeout0B9_
FNDA:1,_RNCNvNtNtNtCsgYtBEIaUujk_14openrouter_api3mcp6client5testss_23test_request_size_limit0B9_
FNDA:1,_RNCNvNtNtNtCsgYtBEIaUujk_14openrouter_api3mcp6client5testss_24test_response_size_limit0B9_
FNDA:1,_RNCNvNtNtNtCsgYtBEIaUujk_14openrouter_api3mcp6client5testss_27test_mcp_client_with_config0B9_
FNDA:1,_RNCNvNtNtNtCsgYtBEIaUujk_14openrouter_api3mcp6client5testss_32test_concurrent_request_limiting0B9_
FNDA:1,_RNCNvNtNtNtCsgYtBEIaUujk_14openrouter_api3mcp6client5testss_35test_mcp_client_with_default_config0B9_
FNDA:1,_RNCNvNtNtNtCsgYtBEIaUujk_14openrouter_api3mcp6client5testss_37test_content_length_header_validation0B9_
FNDA:1,_RNCNvNtNtNtCsgYtBEIaUujk_14openrouter_api3mcp6client5testss_37test_successful_request_within_limits0B9_
FNDA:1,_RNCNvNtNtNtCsgYtBEIaUujk_14openrouter_api3mcp6client5testss_46test_response_size_limit_with_chunked_encoding0B9_
FNDA:4,_RINvMNtNtCsgYtBEIaUujk_14openrouter_api3mcp6clientNtB3_9MCPClient14parse_responseNtNtB5_5types18ServerCapabilitiesEB7_
FNDA:9,_RINvMNtNtCsgYtBEIaUujk_14openrouter_api3mcp6clientNtB3_9MCPClient15new_with_configNtNtCsk11oWLwBebd_5alloc6string6StringEB7_
FNDA:1,_RINvMNtNtCsgYtBEIaUujk_14openrouter_api3mcp6clientNtB3_9MCPClient3newNtNtCsk11oWLwBebd_5alloc6string6StringEB7_
FNDA:0,_RNCINvMNtNtCsgYtBEIaUujk_14openrouter_api3mcp6clientNtB5_9MCPClient15new_with_configNtNtCsk11oWLwBebd_5alloc6string6StringE0B9_
FNDA:0,_RNCINvMNtNtCsgYtBEIaUujk_14openrouter_api3mcp6clientNtB5_9MCPClient15new_with_configNtNtCsk11oWLwBebd_5alloc6string6StringEs_0B9_
FNDA:0,_RNCNCNvMNtNtCsgYtBEIaUujk_14openrouter_api3mcp6clientNtB6_9MCPClient12send_request00Ba_
FNDA:0,_RNCNCNvMNtNtCsgYtBEIaUujk_14openrouter_api3mcp6clientNtB6_9MCPClient12send_request0s0_0Ba_
FNDA:0,_RNCNCNvMNtNtCsgYtBEIaUujk_14openrouter_api3mcp6clientNtB6_9MCPClient12send_request0s_0Ba_
FNDA:8,_RNCNvMNtNtCsgYtBEIaUujk_14openrouter_api3mcp6clientNtB4_9MCPClient10initialize0B8_
FNDA:9,_RNCNvMNtNtCsgYtBEIaUujk_14openrouter_api3mcp6clientNtB4_9MCPClient12send_request0B8_
FNF:51
FNH:30
DA:27,1
DA:28,1
DA:29,1
DA:32,9
DA:33,9
DA:34,9
DA:36,9
DA:37,9
DA:38,9
DA:39,9
DA:41,9
DA:42,9
DA:43,9
DA:44,9
DA:45,9
DA:46,9
DA:47,9
DA:48,9
DA:51,8
DA:52,8
DA:53,8
DA:56,8
DA:57,8
DA:58,8
DA:59,8
DA:60,8
DA:61,8
DA:62,8
DA:63,8
DA:65,8
DA:66,8
DA:67,8
DA:68,8
DA:70,8
DA:73,8
DA:74,4
DA:77,1
DA:78,1
DA:80,1
DA:81,8
DA:84,0
DA:86,0
DA:88,0
DA:89,0
DA:90,0
DA:91,0
DA:92,0
DA:93,0
DA:96,0
DA:97,0
DA:98,0
DA:101,0
DA:103,0
DA:105,0
DA:106,0
DA:107,0
DA:108,0
DA:109,0
DA:110,0
DA:113,0
DA:114,0
DA:115,0
DA:118,0
DA:119,0
DA:120,0
DA:121,0
DA:123,0
DA:125,0
DA:126,0
DA:127,0
DA:128,0
DA:129,0
DA:130,0
DA:133,0
DA:134,0
DA:135,0
DA:138,0
DA:140,0
DA:142,0
DA:143,0
DA:144,0
DA:145,0
DA:146,0
DA:149,0
DA:150,0
DA:153,0
DA:154,0
DA:155,0
DA:158,9
DA:160,9
DA:161,9
DA:162,9
DA:163,9
DA:164,9
DA:167,9
DA:168,9
DA:169,1
DA:170,1
DA:171,1
DA:172,1
DA:173,1
DA:174,8
DA:176,8
DA:177,8
DA:178,8
DA:179,8
DA:180,8
DA:181,8
DA:182,8
DA:183,8
DA:184,8
DA:185,0
DA:186,0
DA:187,0
DA:188,0
DA:189,0
DA:190,8
DA:192,7
DA:194,0
DA:195,0
DA:196,0
DA:198,7
DA:201,7
DA:202,7
DA:203,2
DA:204,2
DA:205,2
DA:206,2
DA:207,5
DA:211,5
DA:212,5
DA:214,9
DA:215,5
DA:216,5
DA:217,1
DA:218,1
DA:219,1
DA:220,1
DA:221,4
DA:222,4
DA:225,4
DA:226,4
DA:228,4
DA:229,4
DA:231,4
DA:232,9
DA:235,0
DA:237,0
DA:238,0
DA:239,0
DA:240,0
DA:241,0
DA:245,0
DA:247,0
DA:248,0
DA:249,0
DA:250,0
DA:251,0
DA:252,0
DA:253,0
DA:256,0
DA:257,0
DA:258,0
DA:259,0
DA:260,0
DA:261,0
DA:262,0
DA:263,0
DA:264,0
DA:265,0
DA:267,0
DA:268,0
DA:271,4
DA:272,4
DA:273,4
DA:274,4
DA:276,4
DA:277,0
DA:278,0
DA:279,0
DA:280,0
DA:281,0
DA:282,4
DA:285,4
DA:286,4
DA:287,0
DA:289,4
DA:292,0
DA:293,0
DA:294,0
DA:295,0
DA:296,0
DA:297,0
DA:307,8
DA:308,8
DA:309,8
DA:310,8
DA:311,8
DA:312,8
DA:313,8
DA:314,8
DA:317,1
DA:318,1
DA:319,1
DA:322,1
DA:323,1
DA:324,1
DA:325,1
DA:326,1
DA:329,1
DA:330,1
DA:331,1
DA:334,1
DA:335,1
DA:336,1
DA:337,1
DA:338,1
DA:341,1
DA:342,1
DA:345,1
DA:346,1
DA:347,1
DA:348,1
DA:349,1
DA:350,1
DA:351,1
DA:352,1
DA:353,1
DA:354,1
DA:355,1
DA:356,1
DA:358,1
DA:360,1
DA:361,1
DA:362,1
DA:363,1
DA:364,1
DA:365,1
DA:366,1
DA:367,1
DA:368,1
DA:369,1
DA:370,1
DA:371,1
DA:372,1
DA:375,1
DA:376,1
DA:379,1
DA:380,1
DA:381,1
DA:382,1
DA:383,1
DA:384,1
DA:385,1
DA:386,1
DA:387,1
DA:388,1
DA:389,1
DA:391,1
DA:393,1
DA:394,1
DA:395,1
DA:396,1
DA:397,1
DA:399,1
DA:400,1
DA:401,1
DA:402,1
DA:403,1
DA:404,1
DA:407,1
DA:408,1
DA:410,1
DA:411,1
DA:412,1
DA:413,1
DA:414,1
DA:415,1
DA:416,1
DA:417,1
DA:418,1
DA:419,1
DA:421,1
DA:424,1
DA:427,1
DA:428,1
DA:429,1
DA:430,1
DA:431,1
DA:432,1
DA:433,1
DA:434,1
DA:435,1
DA:436,1
DA:437,1
DA:438,1
DA:441,1
DA:442,1
DA:445,1
DA:447,1
DA:448,1
DA:449,1
DA:450,1
DA:451,1
DA:452,1
DA:453,1
DA:456,1
DA:457,1
DA:460,1
DA:461,1
DA:462,1
DA:463,1
DA:464,1
DA:465,1
DA:466,1
DA:467,1
DA:468,1
DA:469,1
DA:470,1
DA:471,1
DA:473,1
DA:476,1
DA:477,1
DA:478,1
DA:479,1
DA:480,1
DA:481,3
DA:482,3
DA:483,3
DA:484,3
DA:485,3
DA:486,1
DA:488,1
DA:491,3
DA:494,1
DA:495,1
DA:496,1
DA:497,1
DA:498,1
DA:499,1
DA:502,1
DA:503,1
DA:505,1
DA:506,1
DA:507,1
DA:508,1
DA:509,1
DA:510,1
DA:511,1
DA:512,1
DA:513,1
DA:514,1
DA:515,1
DA:516,1
DA:518,1
DA:520,1
DA:521,1
DA:522,1
DA:523,1
DA:524,1
DA:526,1
DA:527,1
DA:528,1
DA:529,1
DA:532,1
DA:533,1
DA:536,1
DA:537,1
DA:538,1
DA:539,1
DA:540,1
DA:541,1
DA:542,1
DA:543,1
DA:544,1
DA:545,1
DA:546,1
DA:548,1
DA:550,1
DA:551,1
DA:552,1
DA:553,1
DA:554,1
DA:556,1
DA:557,1
DA:558,1
DA:559,1
DA:560,1
DA:561,1
DA:562,1
DA:565,1
DA:566,1
DA:569,1
DA:570,1
DA:571,1
DA:572,1
DA:573,1
DA:574,1
DA:575,1
DA:576,1
DA:577,1
DA:578,1
DA:579,1
DA:580,1
DA:581,1
DA:582,1
DA:584,1
DA:586,1
DA:587,1
DA:588,1
DA:589,1
DA:590,1
DA:592,1
DA:593,1
DA:594,1
DA:595,1
DA:596,1
DA:597,1
DA:598,1
BRF:0
BRH:0
LF:470
LH:354
end_of_record
SF:/Volumes/Everything/Development/openrouter_api/src/mcp/types.rs
FN:204,_RNvXNtNtCsgYtBEIaUujk_14openrouter_api3mcp5typesNtB2_9McpConfigNtNtCs1FLWZe5rD62_4core7default7Default7default
FNDA:1,_RNvXNtNtCsgYtBEIaUujk_14openrouter_api3mcp5typesNtB2_9McpConfigNtNtCs1FLWZe5rD62_4core7default7Default7default
FNF:1
FNH:1
DA:204,1
DA:205,1
DA:206,1
DA:207,1
DA:208,1
DA:209,1
DA:210,1
DA:211,1
BRF:0
BRH:0
LF:8
LH:8
end_of_record
SF:/Volumes/Everything/Development/openrouter_api/src/models/chat.rs
FN:28,_RNvXNtNtCsgl6iEIT30H0_14openrouter_api6models4chatNtNtNtB6_5types4chat7MessageINtNtCs1FLWZe5rD62_4core7convert4FromNtB2_11ChatMessageE4from
FN:28,_RNvXNtNtCsgYtBEIaUujk_14openrouter_api6models4chatNtNtNtB6_5types4chat7MessageINtNtCs1FLWZe5rD62_4core7convert4FromNtB2_11ChatMessageE4from
FNDA:0,_RNvXNtNtCsgl6iEIT30H0_14openrouter_api6models4chatNtNtNtB6_5types4chat7MessageINtNtCs1FLWZe5rD62_4core7convert4FromNtB2_11ChatMessageE4from
FNDA:0,_RNvXNtNtCsgYtBEIaUujk_14openrouter_api6models4chatNtNtNtB6_5types4chat7MessageINtNtCs1FLWZe5rD62_4core7convert4FromNtB2_11ChatMessageE4from
FNF:1
FNH:0
DA:28,0
DA:30,0
DA:31,0
DA:32,0
DA:33,0
DA:35,0
DA:36,0
DA:37,0
DA:38,0
DA:39,0
DA:40,0
DA:41,0
DA:42,0
BRF:0
BRH:0
LF:13
LH:0
end_of_record
SF:/Volumes/Everything/Development/openrouter_api/src/models/provider_preferences.rs
FN:93,_RNvMs_NtNtCsgYtBEIaUujk_14openrouter_api6models20provider_preferencesNtB4_19ProviderPreferences8validate
FN:118,_RNvMs_NtNtCsgYtBEIaUujk_14openrouter_api6models20provider_preferencesNtB4_19ProviderPreferences10with_order
FN:142,_RNvMs_NtNtCsgYtBEIaUujk_14openrouter_api6models20provider_preferencesNtB4_19ProviderPreferences11with_ignore
FN:148,_RNvMs_NtNtCsgYtBEIaUujk_14openrouter_api6models20provider_preferencesNtB4_19ProviderPreferences18with_quantizations
FN:124,_RNvMs_NtNtCsgYtBEIaUujk_14openrouter_api6models20provider_preferencesNtB4_19ProviderPreferences20with_allow_fallbacks
FN:136,_RNvMs_NtNtCsgYtBEIaUujk_14openrouter_api6models20provider_preferencesNtB4_19ProviderPreferences20with_data_collection
FN:130,_RNvMs_NtNtCsgYtBEIaUujk_14openrouter_api6models20provider_preferencesNtB4_19ProviderPreferences23with_require_parameters
FN:77,_RNvMs_NtNtCsgYtBEIaUujk_14openrouter_api6models20provider_preferencesNtB4_19ProviderPreferences3new
FN:154,_RNvMs_NtNtCsgYtBEIaUujk_14openrouter_api6models20provider_preferencesNtB4_19ProviderPreferences9with_sort
FN:68,_RNvXNtNtCsgYtBEIaUujk_14openrouter_api6models20provider_preferencesNtB2_19ProviderPreferencesNtNtCs1FLWZe5rD62_4core7default7Default7default
FNDA:1,_RNvMs_NtNtCsgYtBEIaUujk_14openrouter_api6models20provider_preferencesNtB4_19ProviderPreferences8validate
FNDA:0,_RNvMs_NtNtCsgYtBEIaUujk_14openrouter_api6models20provider_preferencesNtB4_19ProviderPreferences10with_order
FNDA:0,_RNvMs_NtNtCsgYtBEIaUujk_14openrouter_api6models20provider_preferencesNtB4_19ProviderPreferences11with_ignore
FNDA:0,_RNvMs_NtNtCsgYtBEIaUujk_14openrouter_api6models20provider_preferencesNtB4_19ProviderPreferences18with_quantizations
FNDA:0,_RNvMs_NtNtCsgYtBEIaUujk_14openrouter_api6models20provider_preferencesNtB4_19ProviderPreferences20with_allow_fallbacks
FNDA:0,_RNvMs_NtNtCsgYtBEIaUujk_14openrouter_api6models20provider_preferencesNtB4_19ProviderPreferences20with_data_collection
FNDA:0,_RNvMs_NtNtCsgYtBEIaUujk_14openrouter_api6models20provider_preferencesNtB4_19ProviderPreferences23with_require_parameters
FNDA:0,_RNvMs_NtNtCsgYtBEIaUujk_14openrouter_api6models20provider_preferencesNtB4_19ProviderPreferences3new
FNDA:0,_RNvMs_NtNtCsgYtBEIaUujk_14openrouter_api6models20provider_preferencesNtB4_19ProviderPreferences9with_sort
FNDA:0,_RNvXNtNtCsgYtBEIaUujk_14openrouter_api6models20provider_preferencesNtB2_19ProviderPreferencesNtNtCs1FLWZe5rD62_4core7default7Default7default
FNF:10
FNH:1
DA:68,0
DA:69,0
DA:70,0
DA:77,0
DA:78,0
DA:79,0
DA:80,0
DA:81,0
DA:82,0
DA:83,0
DA:84,0
DA:85,0
DA:86,0
DA:87,0
DA:93,1
DA:95,1
DA:96,1
DA:97,0
DA:98,0
DA:99,0
DA:100,1
DA:103,1
DA:104,3
DA:105,2
DA:106,0
DA:107,0
DA:108,0
DA:109,2
DA:111,0
DA:114,1
DA:115,1
DA:118,0
DA:119,0
DA:120,0
DA:121,0
DA:124,0
DA:125,0
DA:126,0
DA:127,0
DA:130,0
DA:131,0
DA:132,0
DA:133,0
DA:136,0
DA:137,0
DA:138,0
DA:139,0
DA:142,0
DA:143,0
DA:144,0
DA:145,0
DA:148,0
DA:149,0
DA:150,0
DA:151,0
DA:154,0
DA:155,0
DA:156,0
DA:157,0
BRF:0
BRH:0
LF:59
LH:10
end_of_record
SF:/Volumes/Everything/Development/openrouter_api/src/types/analytics.rs
FN:34,_RNvMNtNtCsgl6iEIT30H0_14openrouter_api5types9analyticsNtB2_9SortOrder6as_str
FN:174,_RNvMs0_NtNtCsgl6iEIT30H0_14openrouter_api5types9analyticsNtB5_12ActivityData10final_cost
FN:154,_RNvMs0_NtNtCsgl6iEIT30H0_14openrouter_api5types9analyticsNtB5_12ActivityData12was_streamed
FN:149,_RNvMs0_NtNtCsgl6iEIT30H0_14openrouter_api5types9analyticsNtB5_12ActivityData13is_successful
FN:117,_RNvMs0_NtNtCsgl6iEIT30H0_14openrouter_api5types9analyticsNtB5_12ActivityData14cost_per_token
FN:164,_RNvMs0_NtNtCsgl6iEIT30H0_14openrouter_api5types9analyticsNtB5_12ActivityData14included_media
FN:169,_RNvMs0_NtNtCsgl6iEIT30H0_14openrouter_api5types9analyticsNtB5_12ActivityData14used_reasoning
FN:138,_RNvMs0_NtNtCsgl6iEIT30H0_14openrouter_api5types9analyticsNtB5_12ActivityData15latency_seconds
FN:159,_RNvMs0_NtNtCsgl6iEIT30H0_14openrouter_api5types9analyticsNtB5_12ActivityData15used_web_search
FN:132,_RNvMs0_NtNtCsgl6iEIT30H0_14openrouter_api5types9analyticsNtB5_12ActivityData23cost_per_million_tokens
FN:143,_RNvMs0_NtNtCsgl6iEIT30H0_14openrouter_api5types9analyticsNtB5_12ActivityData23generation_time_seconds
FN:243,_RNvMs1_NtNtCsgl6iEIT30H0_14openrouter_api5types9analyticsNtB5_15ActivityRequest10with_limit
FN:237,_RNvMs1_NtNtCsgl6iEIT30H0_14openrouter_api5types9analyticsNtB5_15ActivityRequest10with_order
FN:249,_RNvMs1_NtNtCsgl6iEIT30H0_14openrouter_api5types9analyticsNtB5_15ActivityRequest11with_offset
FN:202,_RNvMs1_NtNtCsgl6iEIT30H0_14openrouter_api5types9analyticsNtB5_15ActivityRequest3new
FN:255,_RNvMs1_NtNtCsgl6iEIT30H0_14openrouter_api5types9analyticsNtB5_15ActivityRequest8validate
FN:231,_RNvMs1_NtNtCsgl6iEIT30H0_14openrouter_api5types9analyticsNtB5_15ActivityRequest9with_sort
FN:295,_RNvMs2_NtNtCsgl6iEIT30H0_14openrouter_api5types9analyticsNtB5_16ActivityResponse10total_cost
FN:397,_RNvMs2_NtNtCsgl6iEIT30H0_14openrouter_api5types9analyticsNtB5_16ActivityResponse11model_stats
FN:354,_RNvMs2_NtNtCsgl6iEIT30H0_14openrouter_api5types9analyticsNtB5_16ActivityResponse12success_rate
FN:300,_RNvMs2_NtNtCsgl6iEIT30H0_14openrouter_api5types9analyticsNtB5_16ActivityResponse12total_tokens
FN:374,_RNvMs2_NtNtCsgl6iEIT30H0_14openrouter_api5types9analyticsNtB5_16ActivityResponse14group_by_model
FN:430,_RNvMs2_NtNtCsgl6iEIT30H0_14openrouter_api5types9analyticsNtB5_16ActivityResponse14provider_stats
FN:364,_RNvMs2_NtNtCsgl6iEIT30H0_14openrouter_api5types9analyticsNtB5_16ActivityResponse14streaming_rate
FN:386,_RNvMs2_NtNtCsgl6iEIT30H0_14openrouter_api5types9analyticsNtB5_16ActivityResponse17group_by_provider
FN:305,_RNvMs2_NtNtCsgl6iEIT30H0_14openrouter_api5types9analyticsNtB5_16ActivityResponse19total_prompt_tokens
FN:339,_RNvMs2_NtNtCsgl6iEIT30H0_14openrouter_api5types9analyticsNtB5_16ActivityResponse23average_latency_seconds
FN:310,_RNvMs2_NtNtCsgl6iEIT30H0_14openrouter_api5types9analyticsNtB5_16ActivityResponse23total_completion_tokens
FN:315,_RNvMs2_NtNtCsgl6iEIT30H0_14openrouter_api5types9analyticsNtB5_16ActivityResponse24average_cost_per_request
FN:472,_RNvMs2_NtNtCsgl6iEIT30H0_14openrouter_api5types9analyticsNtB5_16ActivityResponse25feature_usage_percentages
FN:324,_RNvMs2_NtNtCsgl6iEIT30H0_14openrouter_api5types9analyticsNtB5_16ActivityResponse31average_cost_per_million_tokens
FN:52,_RNvMs_NtNtCsgl6iEIT30H0_14openrouter_api5types9analyticsNtB4_9SortField6as_str
FN:597,_RNvNtNtCsgl6iEIT30H0_14openrouter_api5types9analytics12is_leap_year
FN:526,_RNvNtNtCsgl6iEIT30H0_14openrouter_api5types9analytics20is_valid_date_format
FN:573,_RNvNtNtCsgl6iEIT30H0_14openrouter_api5types9analytics22is_valid_day_for_month
FN:602,_RNvXs3_NtNtCsgl6iEIT30H0_14openrouter_api5types9analyticsNtB5_12ActivityDataNtNtCs1FLWZe5rD62_4core7default7Default7default
FN:434,_RNCNCNvMs2_NtNtCsgl6iEIT30H0_14openrouter_api5types9analyticsNtB9_16ActivityResponse14provider_stats00Bd_
FN:139,_RNCNvMs0_NtNtCsgl6iEIT30H0_14openrouter_api5types9analyticsNtB7_12ActivityData15latency_seconds0Bb_
FN:134,_RNCNvMs0_NtNtCsgl6iEIT30H0_14openrouter_api5types9analyticsNtB7_12ActivityData23cost_per_million_tokens0Bb_
FN:145,_RNCNvMs0_NtNtCsgl6iEIT30H0_14openrouter_api5types9analyticsNtB7_12ActivityData23generation_time_seconds0Bb_
FN:296,_RNCNvMs2_NtNtCsgl6iEIT30H0_14openrouter_api5types9analyticsNtB7_16ActivityResponse10total_cost0Bb_
FN:399,_RNCNvMs2_NtNtCsgl6iEIT30H0_14openrouter_api5types9analyticsNtB7_16ActivityResponse11model_stats0Bb_
FN:412,_RNCNvMs2_NtNtCsgl6iEIT30H0_14openrouter_api5types9analyticsNtB7_16ActivityResponse11model_statss1_0Bb_
FN:422,_RNCNvMs2_NtNtCsgl6iEIT30H0_14openrouter_api5types9analyticsNtB7_16ActivityResponse11model_statss2_0Bb_
FN:404,_RNCNvMs2_NtNtCsgl6iEIT30H0_14openrouter_api5types9analyticsNtB7_16ActivityResponse11model_statss_0Bb_
FN:358,_RNCNvMs2_NtNtCsgl6iEIT30H0_14openrouter_api5types9analyticsNtB7_16ActivityResponse12success_rate0Bb_
FN:434,_RNCNvMs2_NtNtCsgl6iEIT30H0_14openrouter_api5types9analyticsNtB7_16ActivityResponse14provider_stats0Bb_
FN:454,_RNCNvMs2_NtNtCsgl6iEIT30H0_14openrouter_api5types9analyticsNtB7_16ActivityResponse14provider_statss1_0Bb_
FN:464,_RNCNvMs2_NtNtCsgl6iEIT30H0_14openrouter_api5types9analyticsNtB7_16ActivityResponse14provider_statss2_0Bb_
FN:442,_RNCNvMs2_NtNtCsgl6iEIT30H0_14openrouter_api5types9analyticsNtB7_16ActivityResponse14provider_statss_0Bb_
FN:368,_RNCNvMs2_NtNtCsgl6iEIT30H0_14openrouter_api5types9analyticsNtB7_16ActivityResponse14streaming_rate0Bb_
FN:343,_RNCNvMs2_NtNtCsgl6iEIT30H0_14openrouter_api5types9analyticsNtB7_16ActivityResponse23average_latency_seconds0Bb_
FN:484,_RNCNvMs2_NtNtCsgl6iEIT30H0_14openrouter_api5types9analyticsNtB7_16ActivityResponse25feature_usage_percentages0Bb_
FN:487,_RNCNvMs2_NtNtCsgl6iEIT30H0_14openrouter_api5types9analyticsNtB7_16ActivityResponse25feature_usage_percentagess0_0Bb_
FN:489,_RNCNvMs2_NtNtCsgl6iEIT30H0_14openrouter_api5types9analyticsNtB7_16ActivityResponse25feature_usage_percentagess1_0Bb_
FN:486,_RNCNvMs2_NtNtCsgl6iEIT30H0_14openrouter_api5types9analyticsNtB7_16ActivityResponse25feature_usage_percentagess_0Bb_
FN:537,_RNCNvNtNtCsgl6iEIT30H0_14openrouter_api5types9analytics20is_valid_date_format0B7_
FN:555,_RNCNvNtNtCsgl6iEIT30H0_14openrouter_api5types9analytics20is_valid_date_formats0_0B7_
FN:542,_RNCNvNtNtCsgl6iEIT30H0_14openrouter_api5types9analytics20is_valid_date_formats_0B7_
FN:856,_RNvNtNtNtCsgYtBEIaUujk_14openrouter_api5types9analytics5testss_25test_leap_year_validation
FN:659,_RNvNtNtNtCsgYtBEIaUujk_14openrouter_api5types9analytics5testss_27test_date_format_validation
FN:822,_RNvNtNtNtCsgYtBEIaUujk_14openrouter_api5types9analytics5testss_29test_activity_data_edge_cases
FN:639,_RNvNtNtNtCsgYtBEIaUujk_14openrouter_api5types9analytics5testss_32test_activity_request_validation
FN:770,_RNvNtNtNtCsgYtBEIaUujk_14openrouter_api5types9analytics5testss_33test_activity_response_edge_cases
FN:715,_RNvNtNtNtCsgYtBEIaUujk_14openrouter_api5types9analytics5testss_35test_activity_response_aggregations
FN:671,_RNvNtNtNtCsgYtBEIaUujk_14openrouter_api5types9analytics5testss_38test_activity_data_convenience_methods
FN:865,_RNvNtNtNtCsgYtBEIaUujk_14openrouter_api5types9analytics5testss_40test_model_and_provider_stats_edge_cases
FN:34,_RNvMNtNtCsgYtBEIaUujk_14openrouter_api5types9analyticsNtB2_9SortOrder6as_str
FN:374,_RNvMs2_NtNtCsgYtBEIaUujk_14openrouter_api5types9analyticsNtB5_16ActivityResponse14group_by_model
FN:386,_RNvMs2_NtNtCsgYtBEIaUujk_14openrouter_api5types9analyticsNtB5_16ActivityResponse17group_by_provider
FN:305,_RNvMs2_NtNtCsgYtBEIaUujk_14openrouter_api5types9analyticsNtB5_16ActivityResponse19total_prompt_tokens
FN:310,_RNvMs2_NtNtCsgYtBEIaUujk_14openrouter_api5types9analyticsNtB5_16ActivityResponse23total_completion_tokens
FN:324,_RNvMs2_NtNtCsgYtBEIaUujk_14openrouter_api5types9analyticsNtB5_16ActivityResponse31average_cost_per_million_tokens
FN:52,_RNvMs_NtNtCsgYtBEIaUujk_14openrouter_api5types9analyticsNtB4_9SortField6as_str
FN:174,_RNvMs0_NtNtCsgYtBEIaUujk_14openrouter_api5types9analyticsNtB5_12ActivityData10final_cost
FN:154,_RNvMs0_NtNtCsgYtBEIaUujk_14openrouter_api5types9analyticsNtB5_12ActivityData12was_streamed
FN:149,_RNvMs0_NtNtCsgYtBEIaUujk_14openrouter_api5types9analyticsNtB5_12ActivityData13is_successful
FN:117,_RNvMs0_NtNtCsgYtBEIaUujk_14openrouter_api5types9analyticsNtB5_12ActivityData14cost_per_token
FN:164,_RNvMs0_NtNtCsgYtBEIaUujk_14openrouter_api5types9analyticsNtB5_12ActivityData14included_media
FN:169,_RNvMs0_NtNtCsgYtBEIaUujk_14openrouter_api5types9analyticsNtB5_12ActivityData14used_reasoning
FN:138,_RNvMs0_NtNtCsgYtBEIaUujk_14openrouter_api5types9analyticsNtB5_12ActivityData15latency_seconds
FN:159,_RNvMs0_NtNtCsgYtBEIaUujk_14openrouter_api5types9analyticsNtB5_12ActivityData15used_web_search
FN:132,_RNvMs0_NtNtCsgYtBEIaUujk_14openrouter_api5types9analyticsNtB5_12ActivityData23cost_per_million_tokens
FN:143,_RNvMs0_NtNtCsgYtBEIaUujk_14openrouter_api5types9analyticsNtB5_12ActivityData23generation_time_seconds
FN:243,_RNvMs1_NtNtCsgYtBEIaUujk_14openrouter_api5types9analyticsNtB5_15ActivityRequest10with_limit
FN:237,_RNvMs1_NtNtCsgYtBEIaUujk_14openrouter_api5types9analyticsNtB5_15ActivityRequest10with_order
FN:249,_RNvMs1_NtNtCsgYtBEIaUujk_14openrouter_api5types9analyticsNtB5_15ActivityRequest11with_offset
FN:202,_RNvMs1_NtNtCsgYtBEIaUujk_14openrouter_api5types9analyticsNtB5_15ActivityRequest3new
FN:255,_RNvMs1_NtNtCsgYtBEIaUujk_14openrouter_api5types9analyticsNtB5_15ActivityRequest8validate
FN:231,_RNvMs1_NtNtCsgYtBEIaUujk_14openrouter_api5types9analyticsNtB5_15ActivityRequest9with_sort
FN:295,_RNvMs2_NtNtCsgYtBEIaUujk_14openrouter_api5types9analyticsNtB5_16ActivityResponse10total_cost
FN:397,_RNvMs2_NtNtCsgYtBEIaUujk_14openrouter_api5types9analyticsNtB5_16ActivityResponse11model_stats
FN:354,_RNvMs2_NtNtCsgYtBEIaUujk_14openrouter_api5types9analyticsNtB5_16ActivityResponse12success_rate
FN:300,_RNvMs2_NtNtCsgYtBEIaUujk_14openrouter_api5types9analyticsNtB5_16ActivityResponse12total_tokens
FN:430,_RNvMs2_NtNtCsgYtBEIaUujk_14openrouter_api5types9analyticsNtB5_16ActivityResponse14provider_stats
FN:364,_RNvMs2_NtNtCsgYtBEIaUujk_14openrouter_api5types9analyticsNtB5_16ActivityResponse14streaming_rate
FN:339,_RNvMs2_NtNtCsgYtBEIaUujk_14openrouter_api5types9analyticsNtB5_16ActivityResponse23average_latency_seconds
FN:315,_RNvMs2_NtNtCsgYtBEIaUujk_14openrouter_api5types9analyticsNtB5_16ActivityResponse24average_cost_per_request
FN:472,_RNvMs2_NtNtCsgYtBEIaUujk_14openrouter_api5types9analyticsNtB5_16ActivityResponse25feature_usage_percentages
FN:597,_RNvNtNtCsgYtBEIaUujk_14openrouter_api5types9analytics12is_leap_year
FN:526,_RNvNtNtCsgYtBEIaUujk_14openrouter_api5types9analytics20is_valid_date_format
FN:573,_RNvNtNtCsgYtBEIaUujk_14openrouter_api5types9analytics22is_valid_day_for_month
FN:602,_RNvXs3_NtNtCsgYtBEIaUujk_14openrouter_api5types9analyticsNtB5_12ActivityDataNtNtCs1FLWZe5rD62_4core7default7Default7default
FN:219,_RINvMs1_NtNtCsgYtBEIaUujk_14openrouter_api5types9analyticsNtB6_15ActivityRequest10with_modelReEBa_
FN:213,_RINvMs1_NtNtCsgYtBEIaUujk_14openrouter_api5types9analyticsNtB6_15ActivityRequest13with_end_dateReEBa_
FN:225,_RINvMs1_NtNtCsgYtBEIaUujk_14openrouter_api5types9analyticsNtB6_15ActivityRequest13with_providerReEBa_
FN:207,_RINvMs1_NtNtCsgYtBEIaUujk_14openrouter_api5types9analyticsNtB6_15ActivityRequest15with_start_dateReEBa_
FN:434,_RNCNCNvMs2_NtNtCsgYtBEIaUujk_14openrouter_api5types9analyticsNtB9_16ActivityResponse14provider_stats00Bd_
FN:139,_RNCNvMs0_NtNtCsgYtBEIaUujk_14openrouter_api5types9analyticsNtB7_12ActivityData15latency_seconds0Bb_
FN:134,_RNCNvMs0_NtNtCsgYtBEIaUujk_14openrouter_api5types9analyticsNtB7_12ActivityData23cost_per_million_tokens0Bb_
FN:145,_RNCNvMs0_NtNtCsgYtBEIaUujk_14openrouter_api5types9analyticsNtB7_12ActivityData23generation_time_seconds0Bb_
FN:296,_RNCNvMs2_NtNtCsgYtBEIaUujk_14openrouter_api5types9analyticsNtB7_16ActivityResponse10total_cost0Bb_
FN:399,_RNCNvMs2_NtNtCsgYtBEIaUujk_14openrouter_api5types9analyticsNtB7_16ActivityResponse11model_stats0Bb_
FN:412,_RNCNvMs2_NtNtCsgYtBEIaUujk_14openrouter_api5types9analyticsNtB7_16ActivityResponse11model_statss1_0Bb_
FN:422,_RNCNvMs2_NtNtCsgYtBEIaUujk_14openrouter_api5types9analyticsNtB7_16ActivityResponse11model_statss2_0Bb_
FN:404,_RNCNvMs2_NtNtCsgYtBEIaUujk_14openrouter_api5types9analyticsNtB7_16ActivityResponse11model_statss_0Bb_
FN:358,_RNCNvMs2_NtNtCsgYtBEIaUujk_14openrouter_api5types9analyticsNtB7_16ActivityResponse12success_rate0Bb_
FN:434,_RNCNvMs2_NtNtCsgYtBEIaUujk_14openrouter_api5types9analyticsNtB7_16ActivityResponse14provider_stats0Bb_
FN:454,_RNCNvMs2_NtNtCsgYtBEIaUujk_14openrouter_api5types9analyticsNtB7_16ActivityResponse14provider_statss1_0Bb_
FN:464,_RNCNvMs2_NtNtCsgYtBEIaUujk_14openrouter_api5types9analyticsNtB7_16ActivityResponse14provider_statss2_0Bb_
FN:442,_RNCNvMs2_NtNtCsgYtBEIaUujk_14openrouter_api5types9analyticsNtB7_16ActivityResponse14provider_statss_0Bb_
FN:368,_RNCNvMs2_NtNtCsgYtBEIaUujk_14openrouter_api5types9analyticsNtB7_16ActivityResponse14streaming_rate0Bb_
FN:343,_RNCNvMs2_NtNtCsgYtBEIaUujk_14openrouter_api5types9analyticsNtB7_16ActivityResponse23average_latency_seconds0Bb_
FN:484,_RNCNvMs2_NtNtCsgYtBEIaUujk_14openrouter_api5types9analyticsNtB7_16ActivityResponse25feature_usage_percentages0Bb_
FN:487,_RNCNvMs2_NtNtCsgYtBEIaUujk_14openrouter_api5types9analyticsNtB7_16ActivityResponse25feature_usage_percentagess0_0Bb_
FN:489,_RNCNvMs2_NtNtCsgYtBEIaUujk_14openrouter_api5types9analyticsNtB7_16ActivityResponse25feature_usage_percentagess1_0Bb_
FN:486,_RNCNvMs2_NtNtCsgYtBEIaUujk_14openrouter_api5types9analyticsNtB7_16ActivityResponse25feature_usage_percentagess_0Bb_
FN:537,_RNCNvNtNtCsgYtBEIaUujk_14openrouter_api5types9analytics20is_valid_date_format0B7_
FN:555,_RNCNvNtNtCsgYtBEIaUujk_14openrouter_api5types9analytics20is_valid_date_formats0_0B7_
FN:542,_RNCNvNtNtCsgYtBEIaUujk_14openrouter_api5types9analytics20is_valid_date_formats_0B7_
FNDA:0,_RNvMNtNtCsgl6iEIT30H0_14openrouter_api5types9analyticsNtB2_9SortOrder6as_str
FNDA:0,_RNvMs0_NtNtCsgl6iEIT30H0_14openrouter_api5types9analyticsNtB5_12ActivityData10final_cost
FNDA:0,_RNvMs0_NtNtCsgl6iEIT30H0_14openrouter_api5types9analyticsNtB5_12ActivityData12was_streamed
FNDA:0,_RNvMs0_NtNtCsgl6iEIT30H0_14openrouter_api5types9analyticsNtB5_12ActivityData13is_successful
FNDA:0,_RNvMs0_NtNtCsgl6iEIT30H0_14openrouter_api5types9analyticsNtB5_12ActivityData14cost_per_token
FNDA:0,_RNvMs0_NtNtCsgl6iEIT30H0_14openrouter_api5types9analyticsNtB5_12ActivityData14included_media
FNDA:0,_RNvMs0_NtNtCsgl6iEIT30H0_14openrouter_api5types9analyticsNtB5_12ActivityData14used_reasoning
FNDA:0,_RNvMs0_NtNtCsgl6iEIT30H0_14openrouter_api5types9analyticsNtB5_12ActivityData15latency_seconds
FNDA:0,_RNvMs0_NtNtCsgl6iEIT30H0_14openrouter_api5types9analyticsNtB5_12ActivityData15used_web_search
FNDA:0,_RNvMs0_NtNtCsgl6iEIT30H0_14openrouter_api5types9analyticsNtB5_12ActivityData23cost_per_million_tokens
FNDA:0,_RNvMs0_NtNtCsgl6iEIT30H0_14openrouter_api5types9analyticsNtB5_12ActivityData23generation_time_seconds
FNDA:0,_RNvMs1_NtNtCsgl6iEIT30H0_14openrouter_api5types9analyticsNtB5_15ActivityRequest10with_limit
FNDA:0,_RNvMs1_NtNtCsgl6iEIT30H0_14openrouter_api5types9analyticsNtB5_15ActivityRequest10with_order
FNDA:0,_RNvMs1_NtNtCsgl6iEIT30H0_14openrouter_api5types9analyticsNtB5_15ActivityRequest11with_offset
FNDA:0,_RNvMs1_NtNtCsgl6iEIT30H0_14openrouter_api5types9analyticsNtB5_15ActivityRequest3new
FNDA:0,_RNvMs1_NtNtCsgl6iEIT30H0_14openrouter_api5types9analyticsNtB5_15ActivityRequest8validate
FNDA:0,_RNvMs1_NtNtCsgl6iEIT30H0_14openrouter_api5types9analyticsNtB5_15ActivityRequest9with_sort
FNDA:0,_RNvMs2_NtNtCsgl6iEIT30H0_14openrouter_api5types9analyticsNtB5_16ActivityResponse10total_cost
FNDA:0,_RNvMs2_NtNtCsgl6iEIT30H0_14openrouter_api5types9analyticsNtB5_16ActivityResponse11model_stats
FNDA:0,_RNvMs2_NtNtCsgl6iEIT30H0_14openrouter_api5types9analyticsNtB5_16ActivityResponse12success_rate
FNDA:0,_RNvMs2_NtNtCsgl6iEIT30H0_14openrouter_api5types9analyticsNtB5_16ActivityResponse12total_tokens
FNDA:0,_RNvMs2_NtNtCsgl6iEIT30H0_14openrouter_api5types9analyticsNtB5_16ActivityResponse14group_by_model
FNDA:0,_RNvMs2_NtNtCsgl6iEIT30H0_14openrouter_api5types9analyticsNtB5_16ActivityResponse14provider_stats
FNDA:0,_RNvMs2_NtNtCsgl6iEIT30H0_14openrouter_api5types9analyticsNtB5_16ActivityResponse14streaming_rate
FNDA:0,_RNvMs2_NtNtCsgl6iEIT30H0_14openrouter_api5types9analyticsNtB5_16ActivityResponse17group_by_provider
FNDA:0,_RNvMs2_NtNtCsgl6iEIT30H0_14openrouter_api5types9analyticsNtB5_16ActivityResponse19total_prompt_tokens
FNDA:0,_RNvMs2_NtNtCsgl6iEIT30H0_14openrouter_api5types9analyticsNtB5_16ActivityResponse23average_latency_seconds
FNDA:0,_RNvMs2_NtNtCsgl6iEIT30H0_14openrouter_api5types9analyticsNtB5_16ActivityResponse23total_completion_tokens
FNDA:0,_RNvMs2_NtNtCsgl6iEIT30H0_14openrouter_api5types9analyticsNtB5_16ActivityResponse24average_cost_per_request
FNDA:0,_RNvMs2_NtNtCsgl6iEIT30H0_14openrouter_api5types9analyticsNtB5_16ActivityResponse25feature_usage_percentages
FNDA:0,_RNvMs2_NtNtCsgl6iEIT30H0_14openrouter_api5types9analyticsNtB5_16ActivityResponse31average_cost_per_million_tokens
FNDA:0,_RNvMs_NtNtCsgl6iEIT30H0_14openrouter_api5types9analyticsNtB4_9SortField6as_str
FNDA:0,_RNvNtNtCsgl6iEIT30H0_14openrouter_api5types9analytics12is_leap_year
FNDA:0,_RNvNtNtCsgl6iEIT30H0_14openrouter_api5types9analytics20is_valid_date_format
FNDA:0,_RNvNtNtCsgl6iEIT30H0_14openrouter_api5types9analytics22is_valid_day_for_month
FNDA:0,_RNvXs3_NtNtCsgl6iEIT30H0_14openrouter_api5types9analyticsNtB5_12ActivityDataNtNtCs1FLWZe5rD62_4core7default7Default7default
FNDA:0,_RNCNCNvMs2_NtNtCsgl6iEIT30H0_14openrouter_api5types9analyticsNtB9_16ActivityResponse14provider_stats00Bd_
FNDA:0,_RNCNvMs0_NtNtCsgl6iEIT30H0_14openrouter_api5types9analyticsNtB7_12ActivityData15latency_seconds0Bb_
FNDA:0,_RNCNvMs0_NtNtCsgl6iEIT30H0_14openrouter_api5types9analyticsNtB7_12ActivityData23cost_per_million_tokens0Bb_
FNDA:0,_RNCNvMs0_NtNtCsgl6iEIT30H0_14openrouter_api5types9analyticsNtB7_12ActivityData23generation_time_seconds0Bb_
FNDA:0,_RNCNvMs2_NtNtCsgl6iEIT30H0_14openrouter_api5types9analyticsNtB7_16ActivityResponse10total_cost0Bb_
FNDA:0,_RNCNvMs2_NtNtCsgl6iEIT30H0_14openrouter_api5types9analyticsNtB7_16ActivityResponse11model_stats0Bb_
FNDA:0,_RNCNvMs2_NtNtCsgl6iEIT30H0_14openrouter_api5types9analyticsNtB7_16ActivityResponse11model_statss1_0Bb_
FNDA:0,_RNCNvMs2_NtNtCsgl6iEIT30H0_14openrouter_api5types9analyticsNtB7_16ActivityResponse11model_statss2_0Bb_
FNDA:0,_RNCNvMs2_NtNtCsgl6iEIT30H0_14openrouter_api5types9analyticsNtB7_16ActivityResponse11model_statss_0Bb_
FNDA:0,_RNCNvMs2_NtNtCsgl6iEIT30H0_14openrouter_api5types9analyticsNtB7_16ActivityResponse12success_rate0Bb_
FNDA:0,_RNCNvMs2_NtNtCsgl6iEIT30H0_14openrouter_api5types9analyticsNtB7_16ActivityResponse14provider_stats0Bb_
FNDA:0,_RNCNvMs2_NtNtCsgl6iEIT30H0_14openrouter_api5types9analyticsNtB7_16ActivityResponse14provider_statss1_0Bb_
FNDA:0,_RNCNvMs2_NtNtCsgl6iEIT30H0_14openrouter_api5types9analyticsNtB7_16ActivityResponse14provider_statss2_0Bb_
FNDA:0,_RNCNvMs2_NtNtCsgl6iEIT30H0_14openrouter_api5types9analyticsNtB7_16ActivityResponse14provider_statss_0Bb_
FNDA:0,_RNCNvMs2_NtNtCsgl6iEIT30H0_14openrouter_api5types9analyticsNtB7_16ActivityResponse14streaming_rate0Bb_
FNDA:0,_RNCNvMs2_NtNtCsgl6iEIT30H0_14openrouter_api5types9analyticsNtB7_16ActivityResponse23average_latency_seconds0Bb_
FNDA:0,_RNCNvMs2_NtNtCsgl6iEIT30H0_14openrouter_api5types9analyticsNtB7_16ActivityResponse25feature_usage_percentages0Bb_
FNDA:0,_RNCNvMs2_NtNtCsgl6iEIT30H0_14openrouter_api5types9analyticsNtB7_16ActivityResponse25feature_usage_percentagess0_0Bb_
FNDA:0,_RNCNvMs2_NtNtCsgl6iEIT30H0_14openrouter_api5types9analyticsNtB7_16ActivityResponse25feature_usage_percentagess1_0Bb_
FNDA:0,_RNCNvMs2_NtNtCsgl6iEIT30H0_14openrouter_api5types9analyticsNtB7_16ActivityResponse25feature_usage_percentagess_0Bb_
FNDA:0,_RNCNvNtNtCsgl6iEIT30H0_14openrouter_api5types9analytics20is_valid_date_format0B7_
FNDA:0,_RNCNvNtNtCsgl6iEIT30H0_14openrouter_api5types9analytics20is_valid_date_formats0_0B7_
FNDA:0,_RNCNvNtNtCsgl6iEIT30H0_14openrouter_api5types9analytics20is_valid_date_formats_0B7_
FNDA:1,_RNvNtNtNtCsgYtBEIaUujk_14openrouter_api5types9analytics5testss_25test_leap_year_validation
FNDA:1,_RNvNtNtNtCsgYtBEIaUujk_14openrouter_api5types9analytics5testss_27test_date_format_validation
FNDA:1,_RNvNtNtNtCsgYtBEIaUujk_14openrouter_api5types9analytics5testss_29test_activity_data_edge_cases
FNDA:1,_RNvNtNtNtCsgYtBEIaUujk_14openrouter_api5types9analytics5testss_32test_activity_request_validation
FNDA:1,_RNvNtNtNtCsgYtBEIaUujk_14openrouter_api5types9analytics5testss_33test_activity_response_edge_cases
FNDA:1,_RNvNtNtNtCsgYtBEIaUujk_14openrouter_api5types9analytics5testss_35test_activity_response_aggregations
FNDA:1,_RNvNtNtNtCsgYtBEIaUujk_14openrouter_api5types9analytics5testss_38test_activity_data_convenience_methods
FNDA:1,_RNvNtNtNtCsgYtBEIaUujk_14openrouter_api5types9analytics5testss_40test_model_and_provider_stats_edge_cases
FNDA:0,_RNvMNtNtCsgYtBEIaUujk_14openrouter_api5types9analyticsNtB2_9SortOrder6as_str
FNDA:0,_RNvMs2_NtNtCsgYtBEIaUujk_14openrouter_api5types9analyticsNtB5_16ActivityResponse14group_by_model
FNDA:0,_RNvMs2_NtNtCsgYtBEIaUujk_14openrouter_api5types9analyticsNtB5_16ActivityResponse17group_by_provider
FNDA:0,_RNvMs2_NtNtCsgYtBEIaUujk_14openrouter_api5types9analyticsNtB5_16ActivityResponse19total_prompt_tokens
FNDA:0,_RNvMs2_NtNtCsgYtBEIaUujk_14openrouter_api5types9analyticsNtB5_16ActivityResponse23total_completion_tokens
FNDA:0,_RNvMs2_NtNtCsgYtBEIaUujk_14openrouter_api5types9analyticsNtB5_16ActivityResponse31average_cost_per_million_tokens
FNDA:0,_RNvMs_NtNtCsgYtBEIaUujk_14openrouter_api5types9analyticsNtB4_9SortField6as_str
FNDA:12,_RNvMs0_NtNtCsgYtBEIaUujk_14openrouter_api5types9analyticsNtB5_12ActivityData10final_cost
FNDA:12,_RNvMs0_NtNtCsgYtBEIaUujk_14openrouter_api5types9analyticsNtB5_12ActivityData12was_streamed
FNDA:9,_RNvMs0_NtNtCsgYtBEIaUujk_14openrouter_api5types9analyticsNtB5_12ActivityData13is_successful
FNDA:11,_RNvMs0_NtNtCsgYtBEIaUujk_14openrouter_api5types9analyticsNtB5_12ActivityData14cost_per_token
FNDA:6,_RNvMs0_NtNtCsgYtBEIaUujk_14openrouter_api5types9analyticsNtB5_12ActivityData14included_media
FNDA:6,_RNvMs0_NtNtCsgYtBEIaUujk_14openrouter_api5types9analyticsNtB5_12ActivityData14used_reasoning
FNDA:7,_RNvMs0_NtNtCsgYtBEIaUujk_14openrouter_api5types9analyticsNtB5_12ActivityData15latency_seconds
FNDA:6,_RNvMs0_NtNtCsgYtBEIaUujk_14openrouter_api5types9analyticsNtB5_12ActivityData15used_web_search
FNDA:5,_RNvMs0_NtNtCsgYtBEIaUujk_14openrouter_api5types9analyticsNtB5_12ActivityData23cost_per_million_tokens
FNDA:3,_RNvMs0_NtNtCsgYtBEIaUujk_14openrouter_api5types9analyticsNtB5_12ActivityData23generation_time_seconds
FNDA:2,_RNvMs1_NtNtCsgYtBEIaUujk_14openrouter_api5types9analyticsNtB5_15ActivityRequest10with_limit
FNDA:4,_RNvMs1_NtNtCsgYtBEIaUujk_14openrouter_api5types9analyticsNtB5_15ActivityRequest10with_order
FNDA:2,_RNvMs1_NtNtCsgYtBEIaUujk_14openrouter_api5types9analyticsNtB5_15ActivityRequest11with_offset
FNDA:9,_RNvMs1_NtNtCsgYtBEIaUujk_14openrouter_api5types9analyticsNtB5_15ActivityRequest3new
FNDA:7,_RNvMs1_NtNtCsgYtBEIaUujk_14openrouter_api5types9analyticsNtB5_15ActivityRequest8validate
FNDA:2,_RNvMs1_NtNtCsgYtBEIaUujk_14openrouter_api5types9analyticsNtB5_15ActivityRequest9with_sort
FNDA:7,_RNvMs2_NtNtCsgYtBEIaUujk_14openrouter_api5types9analyticsNtB5_16ActivityResponse10total_cost
FNDA:1,_RNvMs2_NtNtCsgYtBEIaUujk_14openrouter_api5types9analyticsNtB5_16ActivityResponse11model_stats
FNDA:5,_RNvMs2_NtNtCsgYtBEIaUujk_14openrouter_api5types9analyticsNtB5_16ActivityResponse12success_rate
FNDA:5,_RNvMs2_NtNtCsgYtBEIaUujk_14openrouter_api5types9analyticsNtB5_16ActivityResponse12total_tokens
FNDA:1,_RNvMs2_NtNtCsgYtBEIaUujk_14openrouter_api5types9analyticsNtB5_16ActivityResponse14provider_stats
FNDA:5,_RNvMs2_NtNtCsgYtBEIaUujk_14openrouter_api5types9analyticsNtB5_16ActivityResponse14streaming_rate
FNDA:3,_RNvMs2_NtNtCsgYtBEIaUujk_14openrouter_api5types9analyticsNtB5_16ActivityResponse23average_latency_seconds
FNDA:3,_RNvMs2_NtNtCsgYtBEIaUujk_14openrouter_api5types9analyticsNtB5_16ActivityResponse24average_cost_per_request
FNDA:3,_RNvMs2_NtNtCsgYtBEIaUujk_14openrouter_api5types9analyticsNtB5_16ActivityResponse25feature_usage_percentages
FNDA:6,_RNvNtNtCsgYtBEIaUujk_14openrouter_api5types9analytics12is_leap_year
FNDA:22,_RNvNtNtCsgYtBEIaUujk_14openrouter_api5types9analytics20is_valid_date_format
FNDA:14,_RNvNtNtCsgYtBEIaUujk_14openrouter_api5types9analytics22is_valid_day_for_month
FNDA:7,_RNvXs3_NtNtCsgYtBEIaUujk_14openrouter_api5types9analyticsNtB5_12ActivityDataNtNtCs1FLWZe5rD62_4core7default7Default7default
FNDA:3,_RINvMs1_NtNtCsgYtBEIaUujk_14openrouter_api5types9analyticsNtB6_15ActivityRequest10with_modelReEBa_
FNDA:6,_RINvMs1_NtNtCsgYtBEIaUujk_14openrouter_api5types9analyticsNtB6_15ActivityRequest13with_end_dateReEBa_
FNDA:3,_RINvMs1_NtNtCsgYtBEIaUujk_14openrouter_api5types9analyticsNtB6_15ActivityRequest13with_providerReEBa_
FNDA:8,_RINvMs1_NtNtCsgYtBEIaUujk_14openrouter_api5types9analyticsNtB6_15ActivityRequest15with_start_dateReEBa_
FNDA:0,_RNCNCNvMs2_NtNtCsgYtBEIaUujk_14openrouter_api5types9analyticsNtB9_16ActivityResponse14provider_stats00Bd_
FNDA:7,_RNCNvMs0_NtNtCsgYtBEIaUujk_14openrouter_api5types9analyticsNtB7_12ActivityData15latency_seconds0Bb_
FNDA:4,_RNCNvMs0_NtNtCsgYtBEIaUujk_14openrouter_api5types9analyticsNtB7_12ActivityData23cost_per_million_tokens0Bb_
FNDA:3,_RNCNvMs0_NtNtCsgYtBEIaUujk_14openrouter_api5types9analyticsNtB7_12ActivityData23generation_time_seconds0Bb_
FNDA:10,_RNCNvMs2_NtNtCsgYtBEIaUujk_14openrouter_api5types9analyticsNtB7_16ActivityResponse10total_cost0Bb_
FNDA:0,_RNCNvMs2_NtNtCsgYtBEIaUujk_14openrouter_api5types9analyticsNtB7_16ActivityResponse11model_stats0Bb_
FNDA:0,_RNCNvMs2_NtNtCsgYtBEIaUujk_14openrouter_api5types9analyticsNtB7_16ActivityResponse11model_statss1_0Bb_
FNDA:0,_RNCNvMs2_NtNtCsgYtBEIaUujk_14openrouter_api5types9analyticsNtB7_16ActivityResponse11model_statss2_0Bb_
FNDA:0,_RNCNvMs2_NtNtCsgYtBEIaUujk_14openrouter_api5types9analyticsNtB7_16ActivityResponse11model_statss_0Bb_
FNDA:6,_RNCNvMs2_NtNtCsgYtBEIaUujk_14openrouter_api5types9analyticsNtB7_16ActivityResponse12success_rate0Bb_
FNDA:0,_RNCNvMs2_NtNtCsgYtBEIaUujk_14openrouter_api5types9analyticsNtB7_16ActivityResponse14provider_stats0Bb_
FNDA:0,_RNCNvMs2_NtNtCsgYtBEIaUujk_14openrouter_api5types9analyticsNtB7_16ActivityResponse14provider_statss1_0Bb_
FNDA:0,_RNCNvMs2_NtNtCsgYtBEIaUujk_14openrouter_api5types9analyticsNtB7_16ActivityResponse14provider_statss2_0Bb_
FNDA:0,_RNCNvMs2_NtNtCsgYtBEIaUujk_14openrouter_api5types9analyticsNtB7_16ActivityResponse14provider_statss_0Bb_
FNDA:6,_RNCNvMs2_NtNtCsgYtBEIaUujk_14openrouter_api5types9analyticsNtB7_16ActivityResponse14streaming_rate0Bb_
FNDA:4,_RNCNvMs2_NtNtCsgYtBEIaUujk_14openrouter_api5types9analyticsNtB7_16ActivityResponse23average_latency_seconds0Bb_
FNDA:4,_RNCNvMs2_NtNtCsgYtBEIaUujk_14openrouter_api5types9analyticsNtB7_16ActivityResponse25feature_usage_percentages0Bb_
FNDA:4,_RNCNvMs2_NtNtCsgYtBEIaUujk_14openrouter_api5types9analyticsNtB7_16ActivityResponse25feature_usage_percentagess0_0Bb_
FNDA:4,_RNCNvMs2_NtNtCsgYtBEIaUujk_14openrouter_api5types9analyticsNtB7_16ActivityResponse25feature_usage_percentagess1_0Bb_
FNDA:4,_RNCNvMs2_NtNtCsgYtBEIaUujk_14openrouter_api5types9analyticsNtB7_16ActivityResponse25feature_usage_percentagess_0Bb_
FNDA:64,_RNCNvNtNtCsgYtBEIaUujk_14openrouter_api5types9analytics20is_valid_date_format0B7_
FNDA:30,_RNCNvNtNtCsgYtBEIaUujk_14openrouter_api5types9analytics20is_valid_date_formats0_0B7_
FNDA:32,_RNCNvNtNtCsgYtBEIaUujk_14openrouter_api5types9analytics20is_valid_date_formats_0B7_
FNF:71
FNH:55
DA:34,0
DA:35,0
DA:36,0
DA:37,0
DA:39,0
DA:52,0
DA:53,0
DA:54,0
DA:55,0
DA:56,0
DA:57,0
DA:59,0
DA:117,11
DA:118,11
DA:119,11
DA:121,9
DA:122,8
DA:124,1
DA:127,2
DA:129,11
DA:132,5
DA:133,5
DA:134,5
DA:135,5
DA:138,7
DA:139,7
DA:140,7
DA:143,3
DA:144,3
DA:145,3
DA:146,3
DA:149,9
DA:150,9
DA:151,9
DA:154,12
DA:155,12
DA:156,12
DA:159,6
DA:160,6
DA:161,6
DA:164,6
DA:165,6
DA:166,6
DA:169,6
DA:170,6
DA:171,6
DA:174,12
DA:175,12
DA:176,12
DA:202,9
DA:203,9
DA:204,9
DA:207,8
DA:208,8
DA:209,8
DA:210,8
DA:213,6
DA:214,6
DA:215,6
DA:216,6
DA:219,3
DA:220,3
DA:221,3
DA:222,3
DA:225,3
DA:226,3
DA:227,3
DA:228,3
DA:231,2
DA:232,2
DA:233,2
DA:234,2
DA:237,4
DA:238,4
DA:239,4
DA:240,4
DA:243,2
DA:244,2
DA:245,2
DA:246,2
DA:249,2
DA:250,2
DA:251,2
DA:252,2
DA:255,7
DA:257,7
DA:258,6
DA:259,2
DA:260,4
DA:261,1
DA:263,5
DA:264,4
DA:265,0
DA:266,4
DA:267,1
DA:270,5
DA:271,4
DA:272,2
DA:273,2
DA:274,1
DA:278,3
DA:279,7
DA:295,7
DA:296,10
DA:297,7
DA:300,5
DA:301,5
DA:302,5
DA:305,0
DA:306,0
DA:307,0
DA:310,0
DA:311,0
DA:312,0
DA:315,3
DA:316,3
DA:317,1
DA:319,2
DA:321,3
DA:324,0
DA:325,0
DA:326,0
DA:327,0
DA:329,0
DA:330,0
DA:331,0
DA:333,0
DA:336,0
DA:339,3
DA:340,3
DA:341,3
DA:342,3
DA:343,4
DA:344,3
DA:346,3
DA:347,1
DA:349,2
DA:351,3
DA:354,5
DA:355,5
DA:356,1
DA:358,6
DA:359,4
DA:361,5
DA:364,5
DA:365,5
DA:366,1
DA:368,6
DA:369,4
DA:371,5
DA:374,0
DA:375,0
DA:376,0
DA:377,0
DA:378,0
DA:379,0
DA:380,0
DA:381,0
DA:382,0
DA:383,0
DA:386,0
DA:387,0
DA:388,0
DA:389,0
DA:390,0
DA:391,0
DA:393,0
DA:394,0
DA:397,1
DA:398,1
DA:399,1
DA:402,1
DA:403,1
DA:404,1
DA:405,1
DA:406,1
DA:407,1
DA:410,0
DA:411,0
DA:412,0
DA:413,0
DA:414,0
DA:417,1
DA:418,1
DA:420,0
DA:421,0
DA:422,0
DA:423,0
DA:424,0
DA:427,1
DA:430,1
DA:431,1
DA:432,1
DA:433,1
DA:434,1
DA:435,1
DA:438,1
DA:439,1
DA:440,1
DA:441,1
DA:442,1
DA:443,1
DA:444,1
DA:445,1
DA:446,1
DA:447,1
DA:448,1
DA:449,1
DA:452,0
DA:453,0
DA:454,0
DA:455,0
DA:456,0
DA:459,1
DA:460,1
DA:462,0
DA:463,0
DA:464,0
DA:465,0
DA:466,0
DA:469,1
DA:472,3
DA:473,3
DA:474,1
DA:475,1
DA:476,1
DA:477,1
DA:478,1
DA:479,1
DA:480,2
DA:482,2
DA:484,4
DA:486,4
DA:487,4
DA:489,4
DA:491,3
DA:526,22
DA:527,22
DA:528,3
DA:529,19
DA:531,19
DA:532,19
DA:533,3
DA:534,16
DA:537,64
DA:538,0
DA:539,16
DA:542,32
DA:543,0
DA:544,16
DA:545,16
DA:546,16
DA:547,1
DA:548,15
DA:549,15
DA:551,0
DA:555,30
DA:556,0
DA:557,15
DA:558,15
DA:559,15
DA:560,1
DA:561,14
DA:562,14
DA:564,0
DA:568,14
DA:569,14
DA:570,22
DA:573,14
DA:574,14
DA:575,8
DA:576,0
DA:579,6
DA:580,6
DA:581,4
DA:583,2
DA:586,0
DA:589,0
DA:592,14
DA:593,14
DA:597,6
DA:598,6
DA:599,6
DA:602,7
DA:603,7
DA:604,7
DA:605,7
DA:606,7
DA:607,7
DA:608,7
DA:609,7
DA:610,7
DA:611,7
DA:612,7
DA:613,7
DA:614,7
DA:615,7
DA:616,7
DA:617,7
DA:618,7
DA:619,7
DA:620,7
DA:621,7
DA:622,7
DA:623,7
DA:624,7
DA:625,7
DA:626,7
DA:627,7
DA:628,7
DA:629,7
DA:630,7
DA:631,7
DA:639,1
DA:641,1
DA:642,1
DA:643,1
DA:644,1
DA:645,1
DA:648,1
DA:649,1
DA:652,1
DA:653,1
DA:654,1
DA:655,1
DA:656,1
DA:659,1
DA:660,1
DA:661,1
DA:662,1
DA:663,1
DA:664,1
DA:665,1
DA:666,1
DA:667,1
DA:668,1
DA:671,1
DA:672,1
DA:673,1
DA:674,1
DA:675,1
DA:676,1
DA:677,1
DA:678,1
DA:679,1
DA:680,1
DA:681,1
DA:682,1
DA:683,1
DA:684,1
DA:685,1
DA:686,1
DA:687,1
DA:688,1
DA:689,1
DA:690,1
DA:691,1
DA:692,1
DA:693,1
DA:694,1
DA:695,1
DA:696,1
DA:697,1
DA:700,1
DA:701,1
DA:702,1
DA:703,1
DA:704,1
DA:705,1
DA:706,1
DA:707,1
DA:708,1
DA:709,1
DA:710,1
DA:711,1
DA:712,1
DA:715,1
DA:716,1
DA:717,1
DA:718,1
DA:719,1
DA:720,1
DA:721,1
DA:722,1
DA:723,1
DA:724,1
DA:725,1
DA:726,1
DA:727,1
DA:728,1
DA:729,1
DA:730,1
DA:731,1
DA:732,1
DA:733,1
DA:734,1
DA:735,1
DA:736,1
DA:737,1
DA:738,1
DA:739,1
DA:740,1
DA:741,1
DA:742,1
DA:743,1
DA:744,1
DA:745,1
DA:746,1
DA:749,1
DA:750,1
DA:751,1
DA:752,1
DA:753,1
DA:755,1
DA:756,1
DA:757,1
DA:758,1
DA:759,1
DA:760,1
DA:762,1
DA:763,1
DA:764,1
DA:765,1
DA:766,1
DA:767,1
DA:770,1
DA:772,1
DA:773,1
DA:774,1
DA:775,1
DA:776,1
DA:778,1
DA:779,1
DA:780,1
DA:781,1
DA:782,1
DA:783,1
DA:785,1
DA:786,1
DA:787,1
DA:788,1
DA:789,1
DA:792,1
DA:793,1
DA:794,1
DA:795,1
DA:796,1
DA:797,1
DA:798,1
DA:799,1
DA:800,1
DA:801,1
DA:802,1
DA:803,1
DA:804,1
DA:805,1
DA:806,1
DA:808,1
DA:809,1
DA:810,1
DA:811,1
DA:812,1
DA:815,1
DA:816,1
DA:817,1
DA:818,1
DA:819,1
DA:822,1
DA:824,1
DA:825,1
DA:826,1
DA:827,1
DA:828,1
DA:829,1
DA:830,1
DA:831,1
DA:832,1
DA:833,1
DA:835,1
DA:836,1
DA:837,1
DA:838,1
DA:839,1
DA:842,1
DA:843,1
DA:844,1
DA:845,1
DA:846,1
DA:847,1
DA:848,1
DA:849,1
DA:852,1
DA:853,1
DA:856,1
DA:858,1
DA:859,1
DA:860,1
DA:861,1
DA:862,1
DA:865,1
DA:866,1
DA:867,1
DA:868,1
DA:869,1
DA:870,1
DA:873,1
DA:874,1
DA:875,1
DA:876,1
DA:877,1
DA:878,1
DA:880,1
DA:881,1
DA:882,1
DA:883,1
DA:884,1
DA:885,1
DA:886,1
BRF:0
BRH:0
LF:541
LH:458
end_of_record
SF:/Volumes/Everything/Development/openrouter_api/src/types/chat.rs
FN:154,_RINvMs_NtNtCsgl6iEIT30H0_14openrouter_api5types4chatNtB5_7Message4textReB16_ECsf9KjJYtQA8k_16api_2025_updates
FN:141,_RNvXNtNtCsgl6iEIT30H0_14openrouter_api5types4chatNtB2_7MessageNtNtCs1FLWZe5rD62_4core7default7Default7default
FN:180,_RINvMs_NtNtCsgYtBEIaUujk_14openrouter_api5types4chatNtB5_7Message10multimodalpEB9_
FN:165,_RINvMs_NtNtCsgYtBEIaUujk_14openrouter_api5types4chatNtB5_7Message14text_with_namepppEB9_
FN:202,_RINvMs_NtNtCsgYtBEIaUujk_14openrouter_api5types4chatNtB5_7Message20assistant_with_toolspEB9_
FN:191,_RINvMs_NtNtCsgYtBEIaUujk_14openrouter_api5types4chatNtB5_7Message4toolppEB9_
FN:209,_RNCINvMs_NtNtCsgYtBEIaUujk_14openrouter_api5types4chatNtB7_7Message20assistant_with_toolspE0Bb_
FN:154,_RINvMs_NtNtCsgYtBEIaUujk_14openrouter_api5types4chatNtB5_7Message4textReB16_EB9_
FN:141,_RNvXNtNtCsgYtBEIaUujk_14openrouter_api5types4chatNtB2_7MessageNtNtCs1FLWZe5rD62_4core7default7Default7default
FNDA:1,_RINvMs_NtNtCsgl6iEIT30H0_14openrouter_api5types4chatNtB5_7Message4textReB16_ECsf9KjJYtQA8k_16api_2025_updates
FNDA:0,_RNvXNtNtCsgl6iEIT30H0_14openrouter_api5types4chatNtB2_7MessageNtNtCs1FLWZe5rD62_4core7default7Default7default
FNDA:0,_RINvMs_NtNtCsgYtBEIaUujk_14openrouter_api5types4chatNtB5_7Message10multimodalpEB9_
FNDA:0,_RINvMs_NtNtCsgYtBEIaUujk_14openrouter_api5types4chatNtB5_7Message14text_with_namepppEB9_
FNDA:0,_RINvMs_NtNtCsgYtBEIaUujk_14openrouter_api5types4chatNtB5_7Message20assistant_with_toolspEB9_
FNDA:0,_RINvMs_NtNtCsgYtBEIaUujk_14openrouter_api5types4chatNtB5_7Message4toolppEB9_
FNDA:0,_RNCINvMs_NtNtCsgYtBEIaUujk_14openrouter_api5types4chatNtB7_7Message20assistant_with_toolspE0Bb_
FNDA:1007,_RINvMs_NtNtCsgYtBEIaUujk_14openrouter_api5types4chatNtB5_7Message4textReB16_EB9_
FNDA:2,_RNvXNtNtCsgYtBEIaUujk_14openrouter_api5types4chatNtB2_7MessageNtNtCs1FLWZe5rD62_4core7default7Default7default
FNF:7
FNH:2
DA:141,2
DA:142,2
DA:143,2
DA:144,2
DA:145,2
DA:146,2
DA:147,2
DA:148,2
DA:149,2
DA:154,1008
DA:155,1008
DA:156,1008
DA:157,1008
DA:158,1008
DA:159,1008
DA:160,1008
DA:161,1008
DA:162,1008
DA:165,0
DA:166,0
DA:167,0
DA:168,0
DA:169,0
DA:170,0
DA:171,0
DA:172,0
DA:173,0
DA:174,0
DA:175,0
DA:176,0
DA:177,0
DA:180,0
DA:181,0
DA:182,0
DA:183,0
DA:184,0
DA:185,0
DA:186,0
DA:187,0
DA:188,0
DA:191,0
DA:192,0
DA:193,0
DA:194,0
DA:195,0
DA:196,0
DA:197,0
DA:198,0
DA:199,0
DA:202,0
DA:203,0
DA:204,0
DA:205,0
DA:207,0
DA:208,0
DA:209,0
DA:210,0
DA:211,0
DA:212,0
DA:213,0
DA:215,0
BRF:0
BRH:0
LF:62
LH:18
end_of_record
SF:/Volumes/Everything/Development/openrouter_api/src/types/credits.rs
FN:44,_RNvMs_NtNtCsgYtBEIaUujk_14openrouter_api5types7creditsNtB4_15CreditsResponse7credits
FN:21,_RNvMNtNtCsgYtBEIaUujk_14openrouter_api5types7creditsNtB2_11CreditsData11has_credits
FN:26,_RNvMNtNtCsgYtBEIaUujk_14openrouter_api5types7creditsNtB2_11CreditsData16usage_percentage
FN:16,_RNvMNtNtCsgYtBEIaUujk_14openrouter_api5types7creditsNtB2_11CreditsData9remaining
FN:64,_RNvMs_NtNtCsgYtBEIaUujk_14openrouter_api5types7creditsNtB4_15CreditsResponse11has_credits
FN:54,_RNvMs_NtNtCsgYtBEIaUujk_14openrouter_api5types7creditsNtB4_15CreditsResponse11total_usage
FN:49,_RNvMs_NtNtCsgYtBEIaUujk_14openrouter_api5types7creditsNtB4_15CreditsResponse13total_credits
FN:69,_RNvMs_NtNtCsgYtBEIaUujk_14openrouter_api5types7creditsNtB4_15CreditsResponse16usage_percentage
FN:59,_RNvMs_NtNtCsgYtBEIaUujk_14openrouter_api5types7creditsNtB4_15CreditsResponse17remaining_credits
FN:139,_RNvNtNtNtCsgYtBEIaUujk_14openrouter_api5types7credits5testss_26test_credits_serialization
FN:79,_RNvNtNtNtCsgYtBEIaUujk_14openrouter_api5types7credits5testss_27test_credits_data_remaining
FN:88,_RNvNtNtNtCsgYtBEIaUujk_14openrouter_api5types7credits5testss_29test_credits_data_has_credits
FN:108,_RNvNtNtNtCsgYtBEIaUujk_14openrouter_api5types7credits5testss_34test_credits_data_usage_percentage
FN:150,_RNvNtNtNtCsgYtBEIaUujk_14openrouter_api5types7credits5testss_35test_credits_response_serialization
FN:123,_RNvNtNtNtCsgYtBEIaUujk_14openrouter_api5types7credits5testss_41test_credits_response_convenience_methods
FNDA:0,_RNvMs_NtNtCsgYtBEIaUujk_14openrouter_api5types7creditsNtB4_15CreditsResponse7credits
FNDA:8,_RNvMNtNtCsgYtBEIaUujk_14openrouter_api5types7creditsNtB2_11CreditsData11has_credits
FNDA:7,_RNvMNtNtCsgYtBEIaUujk_14openrouter_api5types7creditsNtB2_11CreditsData16usage_percentage
FNDA:15,_RNvMNtNtCsgYtBEIaUujk_14openrouter_api5types7creditsNtB2_11CreditsData9remaining
FNDA:2,_RNvMs_NtNtCsgYtBEIaUujk_14openrouter_api5types7creditsNtB4_15CreditsResponse11has_credits
FNDA:3,_RNvMs_NtNtCsgYtBEIaUujk_14openrouter_api5types7creditsNtB4_15CreditsResponse11total_usage
FNDA:3,_RNvMs_NtNtCsgYtBEIaUujk_14openrouter_api5types7creditsNtB4_15CreditsResponse13total_credits
FNDA:2,_RNvMs_NtNtCsgYtBEIaUujk_14openrouter_api5types7creditsNtB4_15CreditsResponse16usage_percentage
FNDA:3,_RNvMs_NtNtCsgYtBEIaUujk_14openrouter_api5types7creditsNtB4_15CreditsResponse17remaining_credits
FNDA:1,_RNvNtNtNtCsgYtBEIaUujk_14openrouter_api5types7credits5testss_26test_credits_serialization
FNDA:1,_RNvNtNtNtCsgYtBEIaUujk_14openrouter_api5types7credits5testss_27test_credits_data_remaining
FNDA:1,_RNvNtNtNtCsgYtBEIaUujk_14openrouter_api5types7credits5testss_29test_credits_data_has_credits
FNDA:1,_RNvNtNtNtCsgYtBEIaUujk_14openrouter_api5types7credits5testss_34test_credits_data_usage_percentage
FNDA:1,_RNvNtNtNtCsgYtBEIaUujk_14openrouter_api5types7credits5testss_35test_credits_response_serialization
FNDA:1,_RNvNtNtNtCsgYtBEIaUujk_14openrouter_api5types7credits5testss_41test_credits_response_convenience_methods
FNF:15
FNH:14
DA:16,15
DA:17,15
DA:18,15
DA:21,8
DA:22,8
DA:23,8
DA:26,7
DA:27,7
DA:28,2
DA:30,5
DA:32,7
DA:44,0
DA:45,0
DA:46,0
DA:49,3
DA:50,3
DA:51,3
DA:54,3
DA:55,3
DA:56,3
DA:59,3
DA:60,3
DA:61,3
DA:64,2
DA:65,2
DA:66,2
DA:69,2
DA:70,2
DA:71,2
DA:79,1
DA:80,1
DA:81,1
DA:82,1
DA:83,1
DA:84,1
DA:85,1
DA:88,1
DA:89,1
DA:90,1
DA:91,1
DA:92,1
DA:93,1
DA:94,1
DA:95,1
DA:96,1
DA:97,1
DA:98,1
DA:99,1
DA:100,1
DA:102,1
DA:103,1
DA:104,1
DA:105,1
DA:108,1
DA:109,1
DA:110,1
DA:111,1
DA:112,1
DA:113,1
DA:115,1
DA:116,1
DA:117,1
DA:118,1
DA:119,1
DA:120,1
DA:123,1
DA:124,1
DA:125,1
DA:126,1
DA:127,1
DA:128,1
DA:129,1
DA:131,1
DA:132,1
DA:133,1
DA:134,1
DA:135,1
DA:136,1
DA:139,1
DA:140,1
DA:141,1
DA:142,1
DA:143,1
DA:144,1
DA:145,1
DA:146,1
DA:147,1
DA:150,1
DA:151,1
DA:152,1
DA:153,1
DA:154,1
DA:155,1
DA:156,1
DA:157,1
DA:158,1
DA:159,1
DA:160,1
BRF:0
BRH:0
LF:98
LH:95
end_of_record
SF:/Volumes/Everything/Development/openrouter_api/src/types/generation.rs
FN:111,_RNCNvMNtNtCsgl6iEIT30H0_14openrouter_api5types10generationNtB4_14GenerationData14cost_per_token0B8_
FN:116,_RNCNvMNtNtCsgl6iEIT30H0_14openrouter_api5types10generationNtB4_14GenerationData15latency_seconds0B8_
FN:121,_RNCNvMNtNtCsgl6iEIT30H0_14openrouter_api5types10generationNtB4_14GenerationData23generation_time_seconds0B8_
FN:218,_RNvNtNtNtCsgYtBEIaUujk_14openrouter_api5types10generation5tests27create_test_generation_data
FN:355,_RNvNtNtNtCsgYtBEIaUujk_14openrouter_api5types10generation5testss_29test_generation_serialization
FN:310,_RNvNtNtNtCsgYtBEIaUujk_14openrouter_api5types10generation5testss_31test_generation_data_edge_cases
FN:251,_RNvNtNtNtCsgYtBEIaUujk_14openrouter_api5types10generation5testss_33test_generation_data_total_tokens
FN:285,_RNvNtNtNtCsgYtBEIaUujk_14openrouter_api5types10generation5testss_35test_generation_data_feature_checks
FN:263,_RNvNtNtNtCsgYtBEIaUujk_14openrouter_api5types10generation5testss_35test_generation_data_success_checks
FN:278,_RNvNtNtNtCsgYtBEIaUujk_14openrouter_api5types10generation5testss_37test_generation_data_time_conversions
FN:271,_RNvNtNtNtCsgYtBEIaUujk_14openrouter_api5types10generation5testss_38test_generation_data_cost_calculations
FN:363,_RNvNtNtNtCsgYtBEIaUujk_14openrouter_api5types10generation5testss_38test_generation_response_serialization
FN:257,_RNvNtNtNtCsgYtBEIaUujk_14openrouter_api5types10generation5testss_40test_generation_data_total_native_tokens
FN:293,_RNvNtNtNtCsgYtBEIaUujk_14openrouter_api5types10generation5testss_44test_generation_response_convenience_methods
FN:149,_RNvMs_NtNtCsgYtBEIaUujk_14openrouter_api5types10generationNtB4_18GenerationResponse10generation
FN:194,_RNvMs_NtNtCsgYtBEIaUujk_14openrouter_api5types10generationNtB4_18GenerationResponse15latency_seconds
FN:111,_RNCNvMNtNtCsgYtBEIaUujk_14openrouter_api5types10generationNtB4_14GenerationData14cost_per_token0B8_
FN:116,_RNCNvMNtNtCsgYtBEIaUujk_14openrouter_api5types10generationNtB4_14GenerationData15latency_seconds0B8_
FN:121,_RNCNvMNtNtCsgYtBEIaUujk_14openrouter_api5types10generationNtB4_14GenerationData23generation_time_seconds0B8_
FN:66,_RNvMNtNtCsgYtBEIaUujk_14openrouter_api5types10generationNtB2_14GenerationData12total_tokens
FN:94,_RNvMNtNtCsgYtBEIaUujk_14openrouter_api5types10generationNtB2_14GenerationData12was_streamed
FN:89,_RNvMNtNtCsgYtBEIaUujk_14openrouter_api5types10generationNtB2_14GenerationData13is_successful
FN:99,_RNvMNtNtCsgYtBEIaUujk_14openrouter_api5types10generationNtB2_14GenerationData13was_cancelled
FN:109,_RNvMNtNtCsgYtBEIaUujk_14openrouter_api5types10generationNtB2_14GenerationData14cost_per_token
FN:104,_RNvMNtNtCsgYtBEIaUujk_14openrouter_api5types10generationNtB2_14GenerationData14effective_cost
FN:130,_RNvMNtNtCsgYtBEIaUujk_14openrouter_api5types10generationNtB2_14GenerationData14included_media
FN:135,_RNvMNtNtCsgYtBEIaUujk_14openrouter_api5types10generationNtB2_14GenerationData14used_reasoning
FN:115,_RNvMNtNtCsgYtBEIaUujk_14openrouter_api5types10generationNtB2_14GenerationData15latency_seconds
FN:125,_RNvMNtNtCsgYtBEIaUujk_14openrouter_api5types10generationNtB2_14GenerationData15used_web_search
FN:76,_RNvMNtNtCsgYtBEIaUujk_14openrouter_api5types10generationNtB2_14GenerationData19total_native_tokens
FN:120,_RNvMNtNtCsgYtBEIaUujk_14openrouter_api5types10generationNtB2_14GenerationData23generation_time_seconds
FN:164,_RNvMs_NtNtCsgYtBEIaUujk_14openrouter_api5types10generationNtB4_18GenerationResponse10total_cost
FN:184,_RNvMs_NtNtCsgYtBEIaUujk_14openrouter_api5types10generationNtB4_18GenerationResponse12total_tokens
FN:179,_RNvMs_NtNtCsgYtBEIaUujk_14openrouter_api5types10generationNtB4_18GenerationResponse12was_streamed
FN:174,_RNvMs_NtNtCsgYtBEIaUujk_14openrouter_api5types10generationNtB4_18GenerationResponse13is_successful
FN:189,_RNvMs_NtNtCsgYtBEIaUujk_14openrouter_api5types10generationNtB4_18GenerationResponse14cost_per_token
FN:169,_RNvMs_NtNtCsgYtBEIaUujk_14openrouter_api5types10generationNtB4_18GenerationResponse14effective_cost
FN:204,_RNvMs_NtNtCsgYtBEIaUujk_14openrouter_api5types10generationNtB4_18GenerationResponse14included_media
FN:209,_RNvMs_NtNtCsgYtBEIaUujk_14openrouter_api5types10generationNtB4_18GenerationResponse14used_reasoning
FN:199,_RNvMs_NtNtCsgYtBEIaUujk_14openrouter_api5types10generationNtB4_18GenerationResponse15used_web_search
FN:154,_RNvMs_NtNtCsgYtBEIaUujk_14openrouter_api5types10generationNtB4_18GenerationResponse2id
FN:159,_RNvMs_NtNtCsgYtBEIaUujk_14openrouter_api5types10generationNtB4_18GenerationResponse5model
FNDA:0,_RNCNvMNtNtCsgl6iEIT30H0_14openrouter_api5types10generationNtB4_14GenerationData14cost_per_token0B8_
FNDA:0,_RNCNvMNtNtCsgl6iEIT30H0_14openrouter_api5types10generationNtB4_14GenerationData15latency_seconds0B8_
FNDA:0,_RNCNvMNtNtCsgl6iEIT30H0_14openrouter_api5types10generationNtB4_14GenerationData23generation_time_seconds0B8_
FNDA:9,_RNvNtNtNtCsgYtBEIaUujk_14openrouter_api5types10generation5tests27create_test_generation_data
FNDA:1,_RNvNtNtNtCsgYtBEIaUujk_14openrouter_api5types10generation5testss_29test_generation_serialization
FNDA:1,_RNvNtNtNtCsgYtBEIaUujk_14openrouter_api5types10generation5testss_31test_generation_data_edge_cases
FNDA:1,_RNvNtNtNtCsgYtBEIaUujk_14openrouter_api5types10generation5testss_33test_generation_data_total_tokens
FNDA:1,_RNvNtNtNtCsgYtBEIaUujk_14openrouter_api5types10generation5testss_35test_generation_data_feature_checks
FNDA:1,_RNvNtNtNtCsgYtBEIaUujk_14openrouter_api5types10generation5testss_35test_generation_data_success_checks
FNDA:1,_RNvNtNtNtCsgYtBEIaUujk_14openrouter_api5types10generation5testss_37test_generation_data_time_conversions
FNDA:1,_RNvNtNtNtCsgYtBEIaUujk_14openrouter_api5types10generation5testss_38test_generation_data_cost_calculations
FNDA:1,_RNvNtNtNtCsgYtBEIaUujk_14openrouter_api5types10generation5testss_38test_generation_response_serialization
FNDA:1,_RNvNtNtNtCsgYtBEIaUujk_14openrouter_api5types10generation5testss_40test_generation_data_total_native_tokens
FNDA:1,_RNvNtNtNtCsgYtBEIaUujk_14openrouter_api5types10generation5testss_44test_generation_response_convenience_methods
FNDA:0,_RNvMs_NtNtCsgYtBEIaUujk_14openrouter_api5types10generationNtB4_18GenerationResponse10generation
FNDA:0,_RNvMs_NtNtCsgYtBEIaUujk_14openrouter_api5types10generationNtB4_18GenerationResponse15latency_seconds
FNDA:10,_RNCNvMNtNtCsgYtBEIaUujk_14openrouter_api5types10generationNtB4_14GenerationData14cost_per_token0B8_
FNDA:2,_RNCNvMNtNtCsgYtBEIaUujk_14openrouter_api5types10generationNtB4_14GenerationData15latency_seconds0B8_
FNDA:2,_RNCNvMNtNtCsgYtBEIaUujk_14openrouter_api5types10generationNtB4_14GenerationData23generation_time_seconds0B8_
FNDA:19,_RNvMNtNtCsgYtBEIaUujk_14openrouter_api5types10generationNtB2_14GenerationData12total_tokens
FNDA:6,_RNvMNtNtCsgYtBEIaUujk_14openrouter_api5types10generationNtB2_14GenerationData12was_streamed
FNDA:6,_RNvMNtNtCsgYtBEIaUujk_14openrouter_api5types10generationNtB2_14GenerationData13is_successful
FNDA:2,_RNvMNtNtCsgYtBEIaUujk_14openrouter_api5types10generationNtB2_14GenerationData13was_cancelled
FNDA:12,_RNvMNtNtCsgYtBEIaUujk_14openrouter_api5types10generationNtB2_14GenerationData14cost_per_token
FNDA:15,_RNvMNtNtCsgYtBEIaUujk_14openrouter_api5types10generationNtB2_14GenerationData14effective_cost
FNDA:7,_RNvMNtNtCsgYtBEIaUujk_14openrouter_api5types10generationNtB2_14GenerationData14included_media
FNDA:7,_RNvMNtNtCsgYtBEIaUujk_14openrouter_api5types10generationNtB2_14GenerationData14used_reasoning
FNDA:2,_RNvMNtNtCsgYtBEIaUujk_14openrouter_api5types10generationNtB2_14GenerationData15latency_seconds
FNDA:7,_RNvMNtNtCsgYtBEIaUujk_14openrouter_api5types10generationNtB2_14GenerationData15used_web_search
FNDA:4,_RNvMNtNtCsgYtBEIaUujk_14openrouter_api5types10generationNtB2_14GenerationData19total_native_tokens
FNDA:2,_RNvMNtNtCsgYtBEIaUujk_14openrouter_api5types10generationNtB2_14GenerationData23generation_time_seconds
FNDA:3,_RNvMs_NtNtCsgYtBEIaUujk_14openrouter_api5types10generationNtB4_18GenerationResponse10total_cost
FNDA:3,_RNvMs_NtNtCsgYtBEIaUujk_14openrouter_api5types10generationNtB4_18GenerationResponse12total_tokens
FNDA:2,_RNvMs_NtNtCsgYtBEIaUujk_14openrouter_api5types10generationNtB4_18GenerationResponse12was_streamed
FNDA:2,_RNvMs_NtNtCsgYtBEIaUujk_14openrouter_api5types10generationNtB4_18GenerationResponse13is_successful
FNDA:4,_RNvMs_NtNtCsgYtBEIaUujk_14openrouter_api5types10generationNtB4_18GenerationResponse14cost_per_token
FNDA:7,_RNvMs_NtNtCsgYtBEIaUujk_14openrouter_api5types10generationNtB4_18GenerationResponse14effective_cost
FNDA:3,_RNvMs_NtNtCsgYtBEIaUujk_14openrouter_api5types10generationNtB4_18GenerationResponse14included_media
FNDA:3,_RNvMs_NtNtCsgYtBEIaUujk_14openrouter_api5types10generationNtB4_18GenerationResponse14used_reasoning
FNDA:3,_RNvMs_NtNtCsgYtBEIaUujk_14openrouter_api5types10generationNtB4_18GenerationResponse15used_web_search
FNDA:3,_RNvMs_NtNtCsgYtBEIaUujk_14openrouter_api5types10generationNtB4_18GenerationResponse2id
FNDA:3,_RNvMs_NtNtCsgYtBEIaUujk_14openrouter_api5types10generationNtB4_18GenerationResponse5model
FNF:39
FNH:37
DA:66,19
DA:67,19
DA:68,15
DA:69,0
DA:70,0
DA:71,4
DA:73,19
DA:76,4
DA:77,4
DA:78,4
DA:79,4
DA:81,4
DA:82,2
DA:84,2
DA:86,4
DA:89,6
DA:90,6
DA:91,6
DA:94,6
DA:95,6
DA:96,6
DA:99,2
DA:100,2
DA:101,2
DA:104,15
DA:105,15
DA:106,15
DA:109,12
DA:110,12
DA:111,12
DA:112,12
DA:115,2
DA:116,2
DA:117,2
DA:120,2
DA:121,2
DA:122,2
DA:125,7
DA:126,7
DA:127,7
DA:130,7
DA:131,7
DA:132,7
DA:135,7
DA:136,7
DA:137,7
DA:149,0
DA:150,0
DA:151,0
DA:154,3
DA:155,3
DA:156,3
DA:159,3
DA:160,3
DA:161,3
DA:164,3
DA:165,3
DA:166,3
DA:169,7
DA:170,7
DA:171,7
DA:174,2
DA:175,2
DA:176,2
DA:179,2
DA:180,2
DA:181,2
DA:184,3
DA:185,3
DA:186,3
DA:189,4
DA:190,4
DA:191,4
DA:194,0
DA:195,0
DA:196,0
DA:199,3
DA:200,3
DA:201,3
DA:204,3
DA:205,3
DA:206,3
DA:209,3
DA:210,3
DA:211,3
DA:218,9
DA:219,9
DA:220,9
DA:221,9
DA:222,9
DA:223,9
DA:224,9
DA:225,9
DA:226,9
DA:227,9
DA:228,9
DA:229,9
DA:230,9
DA:231,9
DA:232,9
DA:233,9
DA:234,9
DA:235,9
DA:236,9
DA:237,9
DA:238,9
DA:239,9
DA:240,9
DA:241,9
DA:242,9
DA:243,9
DA:244,9
DA:245,9
DA:246,9
DA:247,9
DA:248,9
DA:251,1
DA:252,1
DA:253,1
DA:254,1
DA:257,1
DA:258,1
DA:259,1
DA:260,1
DA:263,1
DA:264,1
DA:265,1
DA:266,1
DA:267,1
DA:268,1
DA:271,1
DA:272,1
DA:273,1
DA:274,1
DA:275,1
DA:278,1
DA:279,1
DA:280,1
DA:281,1
DA:282,1
DA:285,1
DA:286,1
DA:287,1
DA:288,1
DA:289,1
DA:290,1
DA:293,1
DA:294,1
DA:295,1
DA:297,1
DA:298,1
DA:299,1
DA:300,1
DA:301,1
DA:302,1
DA:303,1
DA:304,1
DA:305,1
DA:306,1
DA:307,1
DA:310,1
DA:312,1
DA:313,1
DA:314,1
DA:315,1
DA:316,1
DA:317,1
DA:318,1
DA:319,1
DA:320,1
DA:321,1
DA:322,1
DA:323,1
DA:324,1
DA:325,1
DA:326,1
DA:327,1
DA:328,1
DA:329,1
DA:330,1
DA:331,1
DA:332,1
DA:333,1
DA:334,1
DA:335,1
DA:336,1
DA:337,1
DA:338,1
DA:339,1
DA:340,1
DA:342,1
DA:343,1
DA:344,1
DA:345,1
DA:346,1
DA:347,1
DA:348,1
DA:349,1
DA:350,1
DA:351,1
DA:352,1
DA:355,1
DA:356,1
DA:357,1
DA:358,1
DA:359,1
DA:360,1
DA:363,1
DA:364,1
DA:365,1
DA:366,1
DA:367,1
DA:368,1
DA:369,1
BRF:0
BRH:0
LF:217
LH:209
end_of_record
SF:/Volumes/Everything/Development/openrouter_api/src/types/models.rs
FN:95,_RNvMNtNtCsgYtBEIaUujk_14openrouter_api5types6modelsNtB2_11PricingInfo12prompt_price
FN:100,_RNvMNtNtCsgYtBEIaUujk_14openrouter_api5types6modelsNtB2_11PricingInfo16completion_price
FN:54,_RNvMNtNtCsgYtBEIaUujk_14openrouter_api5types6modelsNtB2_11PricingInfo8validate
FN:422,_RNvNtNtNtCsgYtBEIaUujk_14openrouter_api5types6models5testss_26test_model_info_edge_cases
FN:159,_RNvNtNtNtCsgYtBEIaUujk_14openrouter_api5types6models5testss_27test_deserialize_model_info
FN:332,_RNvNtNtNtCsgYtBEIaUujk_14openrouter_api5types6models5testss_28test_pricing_info_validation
FN:235,_RNvNtNtNtCsgYtBEIaUujk_14openrouter_api5types6models5testss_32test_deserialize_models_response
FN:285,_RNvNtNtNtCsgYtBEIaUujk_14openrouter_api5types6models5testss_36test_deserialize_all_models_from_api
FN:398,_RNvNtNtNtCsgYtBEIaUujk_14openrouter_api5types6models5testss_37test_model_capability_deserialization
FNDA:4,_RNvMNtNtCsgYtBEIaUujk_14openrouter_api5types6modelsNtB2_11PricingInfo12prompt_price
FNDA:3,_RNvMNtNtCsgYtBEIaUujk_14openrouter_api5types6modelsNtB2_11PricingInfo16completion_price
FNDA:5,_RNvMNtNtCsgYtBEIaUujk_14openrouter_api5types6modelsNtB2_11PricingInfo8validate
FNDA:1,_RNvNtNtNtCsgYtBEIaUujk_14openrouter_api5types6models5testss_26test_model_info_edge_cases
FNDA:1,_RNvNtNtNtCsgYtBEIaUujk_14openrouter_api5types6models5testss_27test_deserialize_model_info
FNDA:1,_RNvNtNtNtCsgYtBEIaUujk_14openrouter_api5types6models5testss_28test_pricing_info_validation
FNDA:1,_RNvNtNtNtCsgYtBEIaUujk_14openrouter_api5types6models5testss_32test_deserialize_models_response
FNDA:1,_RNvNtNtNtCsgYtBEIaUujk_14openrouter_api5types6models5testss_36test_deserialize_all_models_from_api
FNDA:1,_RNvNtNtNtCsgYtBEIaUujk_14openrouter_api5types6models5testss_37test_model_capability_deserialization
FNF:9
FNH:9
DA:54,5
DA:55,5
DA:56,1
DA:57,4
DA:58,4
DA:59,0
DA:60,4
DA:61,4
DA:62,3
DA:63,0
DA:64,3
DA:65,1
DA:66,4
DA:67,3
DA:68,0
DA:69,3
DA:70,1
DA:71,4
DA:72,3
DA:73,0
DA:74,3
DA:75,1
DA:76,4
DA:77,3
DA:78,0
DA:79,3
DA:80,1
DA:81,4
DA:82,3
DA:83,0
DA:84,3
DA:85,1
DA:86,4
DA:87,3
DA:88,0
DA:89,3
DA:90,1
DA:91,4
DA:92,5
DA:95,4
DA:96,4
DA:97,4
DA:100,3
DA:101,3
DA:102,3
DA:159,1
DA:160,1
DA:161,1
DA:162,1
DA:163,1
DA:164,1
DA:165,1
DA:166,1
DA:167,1
DA:168,1
DA:169,1
DA:170,1
DA:171,1
DA:172,1
DA:173,1
DA:174,1
DA:175,1
DA:176,1
DA:177,1
DA:178,1
DA:179,1
DA:180,1
DA:181,1
DA:182,1
DA:183,1
DA:184,1
DA:185,1
DA:186,1
DA:187,1
DA:188,1
DA:189,1
DA:190,1
DA:191,1
DA:192,1
DA:194,1
DA:195,1
DA:196,1
DA:197,0
DA:198,0
DA:201,1
DA:203,1
DA:204,1
DA:205,1
DA:206,1
DA:207,1
DA:208,1
DA:209,1
DA:210,1
DA:211,1
DA:212,1
DA:213,1
DA:214,1
DA:215,1
DA:216,1
DA:218,1
DA:219,1
DA:220,1
DA:221,1
DA:222,1
DA:224,1
DA:225,1
DA:228,1
DA:229,1
DA:232,1
DA:235,1
DA:236,1
DA:237,1
DA:238,1
DA:239,1
DA:240,1
DA:241,1
DA:242,1
DA:243,1
DA:244,1
DA:245,1
DA:246,1
DA:247,1
DA:248,1
DA:249,1
DA:250,1
DA:251,1
DA:252,1
DA:253,1
DA:254,1
DA:255,1
DA:256,1
DA:257,1
DA:258,1
DA:259,1
DA:260,1
DA:261,1
DA:262,1
DA:263,1
DA:264,1
DA:265,1
DA:266,1
DA:267,1
DA:268,1
DA:269,1
DA:270,1
DA:271,1
DA:272,1
DA:273,1
DA:274,1
DA:275,1
DA:276,0
DA:277,0
DA:279,1
DA:280,1
DA:281,1
DA:282,1
DA:285,1
DA:287,1
DA:288,1
DA:289,1
DA:290,1
DA:291,1
DA:294,1
DA:295,1
DA:297,1
DA:298,1
DA:299,1
DA:300,0
DA:301,0
DA:304,1
DA:305,1
DA:306,1
DA:307,0
DA:311,1
DA:313,1
DA:314,1
DA:315,0
DA:317,1
DA:318,1
DA:319,0
DA:323,1
DA:324,1
DA:325,1
DA:327,0
DA:329,1
DA:332,1
DA:334,1
DA:335,1
DA:336,1
DA:337,1
DA:338,1
DA:339,1
DA:340,1
DA:341,1
DA:342,1
DA:343,1
DA:345,1
DA:346,1
DA:347,1
DA:350,1
DA:351,1
DA:352,1
DA:353,1
DA:354,1
DA:355,1
DA:356,1
DA:357,1
DA:358,1
DA:359,1
DA:361,1
DA:362,1
DA:363,1
DA:366,1
DA:367,1
DA:368,1
DA:369,1
DA:370,1
DA:371,1
DA:372,1
DA:373,1
DA:374,1
DA:375,1
DA:377,1
DA:378,1
DA:381,1
DA:382,1
DA:383,1
DA:384,1
DA:385,1
DA:386,1
DA:387,1
DA:388,1
DA:389,1
DA:390,1
DA:392,1
DA:393,1
DA:394,1
DA:395,1
DA:398,1
DA:400,1
DA:401,1
DA:402,1
DA:403,1
DA:404,1
DA:405,1
DA:406,1
DA:407,1
DA:410,8
DA:411,7
DA:412,7
DA:413,7
DA:417,1
DA:418,1
DA:419,1
DA:422,1
DA:424,1
DA:425,1
DA:426,1
DA:427,1
DA:428,1
DA:429,1
DA:430,1
DA:431,1
DA:432,1
DA:433,1
DA:434,1
DA:435,1
DA:436,1
DA:437,1
DA:438,1
DA:439,1
DA:440,1
DA:441,1
DA:442,1
DA:443,1
DA:444,1
DA:445,1
DA:446,1
DA:448,1
DA:449,1
DA:451,1
DA:452,1
DA:453,1
DA:454,1
DA:455,1
DA:456,1
DA:457,1
DA:458,1
DA:461,1
DA:462,1
DA:463,1
DA:464,1
DA:465,1
DA:466,1
DA:467,1
DA:468,1
DA:469,1
DA:470,1
DA:471,1
DA:472,1
DA:473,1
DA:474,1
DA:475,1
DA:476,1
DA:477,1
DA:478,1
DA:479,1
DA:480,1
DA:481,1
DA:482,1
DA:483,1
DA:484,1
DA:485,1
DA:486,1
DA:487,1
DA:488,1
DA:489,1
DA:490,1
DA:491,1
DA:492,1
DA:493,1
DA:494,1
DA:495,1
DA:496,1
DA:497,1
DA:498,1
DA:500,1
DA:501,1
DA:503,1
DA:504,1
DA:505,1
DA:506,1
DA:507,1
DA:508,1
DA:509,1
DA:510,1
BRF:0
BRH:0
LF:336
LH:319
end_of_record
SF:/Volumes/Everything/Development/openrouter_api/src/types/provider.rs
FN:67,_RNvMs_NtNtCsgl6iEIT30H0_14openrouter_api5types8providerNtB4_19ProviderPreferences10with_allow
FN:62,_RNvMs_NtNtCsgl6iEIT30H0_14openrouter_api5types8providerNtB4_19ProviderPreferences10with_order
FN:92,_RNvMs_NtNtCsgl6iEIT30H0_14openrouter_api5types8providerNtB4_19ProviderPreferences18with_quantizations
FN:72,_RNvMs_NtNtCsgl6iEIT30H0_14openrouter_api5types8providerNtB4_19ProviderPreferences20with_allow_fallbacks
FN:87,_RNvMs_NtNtCsgl6iEIT30H0_14openrouter_api5types8providerNtB4_19ProviderPreferences22with_ignored_providers
FN:77,_RNvMs_NtNtCsgl6iEIT30H0_14openrouter_api5types8providerNtB4_19ProviderPreferences23with_require_parameters
FN:112,_RNvMs_NtNtCsgl6iEIT30H0_14openrouter_api5types8providerNtB4_19ProviderPreferences24with_route_optimizations
FN:47,_RNvMs_NtNtCsgl6iEIT30H0_14openrouter_api5types8providerNtB4_19ProviderPreferences3new
FN:40,_RNvXNtNtCsgl6iEIT30H0_14openrouter_api5types8providerNtB2_19ProviderPreferencesNtNtCs1FLWZe5rD62_4core7default7Default7default
FN:82,_RINvMs_NtNtCsgYtBEIaUujk_14openrouter_api5types8providerNtB5_19ProviderPreferences20with_data_collectionpEB9_
FN:102,_RINvMs_NtNtCsgYtBEIaUujk_14openrouter_api5types8providerNtB5_19ProviderPreferences20with_provider_optionpEB9_
FN:97,_RINvMs_NtNtCsgYtBEIaUujk_14openrouter_api5types8providerNtB5_19ProviderPreferences9with_sortpEB9_
FN:67,_RNvMs_NtNtCsgYtBEIaUujk_14openrouter_api5types8providerNtB4_19ProviderPreferences10with_allow
FN:62,_RNvMs_NtNtCsgYtBEIaUujk_14openrouter_api5types8providerNtB4_19ProviderPreferences10with_order
FN:92,_RNvMs_NtNtCsgYtBEIaUujk_14openrouter_api5types8providerNtB4_19ProviderPreferences18with_quantizations
FN:72,_RNvMs_NtNtCsgYtBEIaUujk_14openrouter_api5types8providerNtB4_19ProviderPreferences20with_allow_fallbacks
FN:87,_RNvMs_NtNtCsgYtBEIaUujk_14openrouter_api5types8providerNtB4_19ProviderPreferences22with_ignored_providers
FN:77,_RNvMs_NtNtCsgYtBEIaUujk_14openrouter_api5types8providerNtB4_19ProviderPreferences23with_require_parameters
FN:112,_RNvMs_NtNtCsgYtBEIaUujk_14openrouter_api5types8providerNtB4_19ProviderPreferences24with_route_optimizations
FN:47,_RNvMs_NtNtCsgYtBEIaUujk_14openrouter_api5types8providerNtB4_19ProviderPreferences3new
FN:40,_RNvXNtNtCsgYtBEIaUujk_14openrouter_api5types8providerNtB2_19ProviderPreferencesNtNtCs1FLWZe5rD62_4core7default7Default7default
FNDA:0,_RNvMs_NtNtCsgl6iEIT30H0_14openrouter_api5types8providerNtB4_19ProviderPreferences10with_allow
FNDA:0,_RNvMs_NtNtCsgl6iEIT30H0_14openrouter_api5types8providerNtB4_19ProviderPreferences10with_order
FNDA:0,_RNvMs_NtNtCsgl6iEIT30H0_14openrouter_api5types8providerNtB4_19ProviderPreferences18with_quantizations
FNDA:0,_RNvMs_NtNtCsgl6iEIT30H0_14openrouter_api5types8providerNtB4_19ProviderPreferences20with_allow_fallbacks
FNDA:0,_RNvMs_NtNtCsgl6iEIT30H0_14openrouter_api5types8providerNtB4_19ProviderPreferences22with_ignored_providers
FNDA:0,_RNvMs_NtNtCsgl6iEIT30H0_14openrouter_api5types8providerNtB4_19ProviderPreferences23with_require_parameters
FNDA:0,_RNvMs_NtNtCsgl6iEIT30H0_14openrouter_api5types8providerNtB4_19ProviderPreferences24with_route_optimizations
FNDA:3,_RNvMs_NtNtCsgl6iEIT30H0_14openrouter_api5types8providerNtB4_19ProviderPreferences3new
FNDA:1,_RNvXNtNtCsgl6iEIT30H0_14openrouter_api5types8providerNtB2_19ProviderPreferencesNtNtCs1FLWZe5rD62_4core7default7Default7default
FNDA:0,_RINvMs_NtNtCsgYtBEIaUujk_14openrouter_api5types8providerNtB5_19ProviderPreferences20with_data_collectionpEB9_
FNDA:0,_RINvMs_NtNtCsgYtBEIaUujk_14openrouter_api5types8providerNtB5_19ProviderPreferences20with_provider_optionpEB9_
FNDA:0,_RINvMs_NtNtCsgYtBEIaUujk_14openrouter_api5types8providerNtB5_19ProviderPreferences9with_sortpEB9_
FNDA:0,_RNvMs_NtNtCsgYtBEIaUujk_14openrouter_api5types8providerNtB4_19ProviderPreferences10with_allow
FNDA:0,_RNvMs_NtNtCsgYtBEIaUujk_14openrouter_api5types8providerNtB4_19ProviderPreferences10with_order
FNDA:0,_RNvMs_NtNtCsgYtBEIaUujk_14openrouter_api5types8providerNtB4_19ProviderPreferences18with_quantizations
FNDA:0,_RNvMs_NtNtCsgYtBEIaUujk_14openrouter_api5types8providerNtB4_19ProviderPreferences20with_allow_fallbacks
FNDA:0,_RNvMs_NtNtCsgYtBEIaUujk_14openrouter_api5types8providerNtB4_19ProviderPreferences22with_ignored_providers
FNDA:0,_RNvMs_NtNtCsgYtBEIaUujk_14openrouter_api5types8providerNtB4_19ProviderPreferences23with_require_parameters
FNDA:0,_RNvMs_NtNtCsgYtBEIaUujk_14openrouter_api5types8providerNtB4_19ProviderPreferences24with_route_optimizations
FNDA:0,_RNvMs_NtNtCsgYtBEIaUujk_14openrouter_api5types8providerNtB4_19ProviderPreferences3new
FNDA:0,_RNvXNtNtCsgYtBEIaUujk_14openrouter_api5types8providerNtB2_19ProviderPreferencesNtNtCs1FLWZe5rD62_4core7default7Default7default
FNF:12
FNH:2
DA:40,1
DA:41,1
DA:42,1
DA:47,3
DA:48,3
DA:49,3
DA:50,3
DA:51,3
DA:52,3
DA:53,3
DA:54,3
DA:55,3
DA:56,3
DA:57,3
DA:58,3
DA:59,3
DA:60,3
DA:62,0
DA:63,0
DA:64,0
DA:65,0
DA:67,0
DA:68,0
DA:69,0
DA:70,0
DA:72,0
DA:73,0
DA:74,0
DA:75,0
DA:77,0
DA:78,0
DA:79,0
DA:80,0
DA:82,0
DA:83,0
DA:84,0
DA:85,0
DA:87,0
DA:88,0
DA:89,0
DA:90,0
DA:92,0
DA:93,0
DA:94,0
DA:95,0
DA:97,0
DA:98,0
DA:99,0
DA:100,0
DA:102,0
DA:103,0
DA:104,0
DA:105,0
DA:106,0
DA:107,0
DA:108,0
DA:109,0
DA:110,0
DA:112,0
DA:113,0
DA:114,0
DA:115,0
BRF:0
BRH:0
LF:62
LH:17
end_of_record
SF:/Volumes/Everything/Development/openrouter_api/src/types/providers.rs
FN:56,_RNvMNtNtCsgl6iEIT30H0_14openrouter_api5types9providersNtB2_8Provider15has_status_page
FN:42,_RNvMNtNtCsgl6iEIT30H0_14openrouter_api5types9providersNtB2_8Provider18has_privacy_policy
FN:81,_RNvMNtNtCsgl6iEIT30H0_14openrouter_api5types9providersNtB2_8Provider18status_page_domain
FN:49,_RNvMNtNtCsgl6iEIT30H0_14openrouter_api5types9providersNtB2_8Provider20has_terms_of_service
FN:63,_RNvMNtNtCsgl6iEIT30H0_14openrouter_api5types9providersNtB2_8Provider21privacy_policy_domain
FN:72,_RNvMNtNtCsgl6iEIT30H0_14openrouter_api5types9providersNtB2_8Provider23terms_of_service_domain
FN:25,_RNvMNtNtCsgl6iEIT30H0_14openrouter_api5types9providersNtB2_8Provider3new
FN:114,_RNvMs_NtNtCsgl6iEIT30H0_14openrouter_api5types9providersNtB4_17ProvidersResponse12find_by_name
FN:109,_RNvMs_NtNtCsgl6iEIT30H0_14openrouter_api5types9providersNtB4_17ProvidersResponse12find_by_slug
FN:175,_RNvMs_NtNtCsgl6iEIT30H0_14openrouter_api5types9providersNtB4_17ProvidersResponse12sorted_names
FN:164,_RNvMs_NtNtCsgl6iEIT30H0_14openrouter_api5types9providersNtB4_17ProvidersResponse12sorted_slugs
FN:145,_RNvMs_NtNtCsgl6iEIT30H0_14openrouter_api5types9providersNtB4_17ProvidersResponse15group_by_domain
FN:137,_RNvMs_NtNtCsgl6iEIT30H0_14openrouter_api5types9providersNtB4_17ProvidersResponse16with_status_page
FN:121,_RNvMs_NtNtCsgl6iEIT30H0_14openrouter_api5types9providersNtB4_17ProvidersResponse19with_privacy_policy
FN:129,_RNvMs_NtNtCsgl6iEIT30H0_14openrouter_api5types9providersNtB4_17ProvidersResponse21with_terms_of_service
FN:99,_RNvMs_NtNtCsgl6iEIT30H0_14openrouter_api5types9providersNtB4_17ProvidersResponse3new
FN:104,_RNvMs_NtNtCsgl6iEIT30H0_14openrouter_api5types9providersNtB4_17ProvidersResponse5count
FN:85,_RNCNCNCNvMNtNtCsgl6iEIT30H0_14openrouter_api5types9providersNtB8_8Provider18status_page_domain000Bc_
FN:67,_RNCNCNCNvMNtNtCsgl6iEIT30H0_14openrouter_api5types9providersNtB8_8Provider21privacy_policy_domain000Bc_
FN:76,_RNCNCNCNvMNtNtCsgl6iEIT30H0_14openrouter_api5types9providersNtB8_8Provider23terms_of_service_domain000Bc_
FN:85,_RNCNCNvMNtNtCsgl6iEIT30H0_14openrouter_api5types9providersNtB6_8Provider18status_page_domain00Ba_
FN:67,_RNCNCNvMNtNtCsgl6iEIT30H0_14openrouter_api5types9providersNtB6_8Provider21privacy_policy_domain00Ba_
FN:76,_RNCNCNvMNtNtCsgl6iEIT30H0_14openrouter_api5types9providersNtB6_8Provider23terms_of_service_domain00Ba_
FN:59,_RNCNvMNtNtCsgl6iEIT30H0_14openrouter_api5types9providersNtB4_8Provider15has_status_page0B8_
FN:45,_RNCNvMNtNtCsgl6iEIT30H0_14openrouter_api5types9providersNtB4_8Provider18has_privacy_policy0B8_
FN:82,_RNCNvMNtNtCsgl6iEIT30H0_14openrouter_api5types9providersNtB4_8Provider18status_page_domain0B8_
FN:52,_RNCNvMNtNtCsgl6iEIT30H0_14openrouter_api5types9providersNtB4_8Provider20has_terms_of_service0B8_
FN:64,_RNCNvMNtNtCsgl6iEIT30H0_14openrouter_api5types9providersNtB4_8Provider21privacy_policy_domain0B8_
FN:73,_RNCNvMNtNtCsgl6iEIT30H0_14openrouter_api5types9providersNtB4_8Provider23terms_of_service_domain0B8_
FN:117,_RNCNvMs_NtNtCsgl6iEIT30H0_14openrouter_api5types9providersNtB6_17ProvidersResponse12find_by_name0Ba_
FN:110,_RNCNvMs_NtNtCsgl6iEIT30H0_14openrouter_api5types9providersNtB6_17ProvidersResponse12find_by_slug0Ba_
FN:179,_RNCNvMs_NtNtCsgl6iEIT30H0_14openrouter_api5types9providersNtB6_17ProvidersResponse12sorted_names0Ba_
FN:168,_RNCNvMs_NtNtCsgl6iEIT30H0_14openrouter_api5types9providersNtB6_17ProvidersResponse12sorted_slugs0Ba_
FN:152,_RNCNvMs_NtNtCsgl6iEIT30H0_14openrouter_api5types9providersNtB6_17ProvidersResponse15group_by_domain0Ba_
FN:154,_RNCNvMs_NtNtCsgl6iEIT30H0_14openrouter_api5types9providersNtB6_17ProvidersResponse15group_by_domains0_0Ba_
FN:153,_RNCNvMs_NtNtCsgl6iEIT30H0_14openrouter_api5types9providersNtB6_17ProvidersResponse15group_by_domains_0Ba_
FN:140,_RNCNvMs_NtNtCsgl6iEIT30H0_14openrouter_api5types9providersNtB6_17ProvidersResponse16with_status_page0Ba_
FN:124,_RNCNvMs_NtNtCsgl6iEIT30H0_14openrouter_api5types9providersNtB6_17ProvidersResponse19with_privacy_policy0Ba_
FN:132,_RNCNvMs_NtNtCsgl6iEIT30H0_14openrouter_api5types9providersNtB6_17ProvidersResponse21with_terms_of_service0Ba_
FN:402,_RNCNvNtNtNtCsgYtBEIaUujk_14openrouter_api5types9providers5testss_28test_provider_url_validation0B9_
FN:274,_RNvNtNtNtCsgYtBEIaUujk_14openrouter_api5types9providers5testss_20test_group_by_domain
FN:257,_RNvNtNtNtCsgYtBEIaUujk_14openrouter_api5types9providers5testss_22test_domain_extraction
FN:191,_RNvNtNtNtCsgYtBEIaUujk_14openrouter_api5types9providers5testss_22test_provider_creation
FN:223,_RNvNtNtNtCsgYtBEIaUujk_14openrouter_api5types9providers5testss_23test_providers_response
FN:300,_RNvNtNtNtCsgYtBEIaUujk_14openrouter_api5types9providers5testss_24test_provider_edge_cases
FN:208,_RNvNtNtNtCsgYtBEIaUujk_14openrouter_api5types9providers5testss_26test_provider_without_urls
FN:376,_RNvNtNtNtCsgYtBEIaUujk_14openrouter_api5types9providers5testss_28test_provider_url_validation
FN:336,_RNvNtNtNtCsgYtBEIaUujk_14openrouter_api5types9providers5testss_34test_providers_response_edge_cases
FN:85,_RNCNCNCNvMNtNtCsgYtBEIaUujk_14openrouter_api5types9providersNtB8_8Provider18status_page_domain000Bc_
FN:67,_RNCNCNCNvMNtNtCsgYtBEIaUujk_14openrouter_api5types9providersNtB8_8Provider21privacy_policy_domain000Bc_
FN:76,_RNCNCNCNvMNtNtCsgYtBEIaUujk_14openrouter_api5types9providersNtB8_8Provider23terms_of_service_domain000Bc_
FN:85,_RNCNCNvMNtNtCsgYtBEIaUujk_14openrouter_api5types9providersNtB6_8Provider18status_page_domain00Ba_
FN:67,_RNCNCNvMNtNtCsgYtBEIaUujk_14openrouter_api5types9providersNtB6_8Provider21privacy_policy_domain00Ba_
FN:76,_RNCNCNvMNtNtCsgYtBEIaUujk_14openrouter_api5types9providersNtB6_8Provider23terms_of_service_domain00Ba_
FN:59,_RNCNvMNtNtCsgYtBEIaUujk_14openrouter_api5types9providersNtB4_8Provider15has_status_page0B8_
FN:45,_RNCNvMNtNtCsgYtBEIaUujk_14openrouter_api5types9providersNtB4_8Provider18has_privacy_policy0B8_
FN:82,_RNCNvMNtNtCsgYtBEIaUujk_14openrouter_api5types9providersNtB4_8Provider18status_page_domain0B8_
FN:52,_RNCNvMNtNtCsgYtBEIaUujk_14openrouter_api5types9providersNtB4_8Provider20has_terms_of_service0B8_
FN:64,_RNCNvMNtNtCsgYtBEIaUujk_14openrouter_api5types9providersNtB4_8Provider21privacy_policy_domain0B8_
FN:73,_RNCNvMNtNtCsgYtBEIaUujk_14openrouter_api5types9providersNtB4_8Provider23terms_of_service_domain0B8_
FN:117,_RNCNvMs_NtNtCsgYtBEIaUujk_14openrouter_api5types9providersNtB6_17ProvidersResponse12find_by_name0Ba_
FN:110,_RNCNvMs_NtNtCsgYtBEIaUujk_14openrouter_api5types9providersNtB6_17ProvidersResponse12find_by_slug0Ba_
FN:179,_RNCNvMs_NtNtCsgYtBEIaUujk_14openrouter_api5types9providersNtB6_17ProvidersResponse12sorted_names0Ba_
FN:168,_RNCNvMs_NtNtCsgYtBEIaUujk_14openrouter_api5types9providersNtB6_17ProvidersResponse12sorted_slugs0Ba_
FN:152,_RNCNvMs_NtNtCsgYtBEIaUujk_14openrouter_api5types9providersNtB6_17ProvidersResponse15group_by_domain0Ba_
FN:154,_RNCNvMs_NtNtCsgYtBEIaUujk_14openrouter_api5types9providersNtB6_17ProvidersResponse15group_by_domains0_0Ba_
FN:153,_RNCNvMs_NtNtCsgYtBEIaUujk_14openrouter_api5types9providersNtB6_17ProvidersResponse15group_by_domains_0Ba_
FN:140,_RNCNvMs_NtNtCsgYtBEIaUujk_14openrouter_api5types9providersNtB6_17ProvidersResponse16with_status_page0Ba_
FN:124,_RNCNvMs_NtNtCsgYtBEIaUujk_14openrouter_api5types9providersNtB6_17ProvidersResponse19with_privacy_policy0Ba_
FN:132,_RNCNvMs_NtNtCsgYtBEIaUujk_14openrouter_api5types9providersNtB6_17ProvidersResponse21with_terms_of_service0Ba_
FN:56,_RNvMNtNtCsgYtBEIaUujk_14openrouter_api5types9providersNtB2_8Provider15has_status_page
FN:42,_RNvMNtNtCsgYtBEIaUujk_14openrouter_api5types9providersNtB2_8Provider18has_privacy_policy
FN:81,_RNvMNtNtCsgYtBEIaUujk_14openrouter_api5types9providersNtB2_8Provider18status_page_domain
FN:49,_RNvMNtNtCsgYtBEIaUujk_14openrouter_api5types9providersNtB2_8Provider20has_terms_of_service
FN:63,_RNvMNtNtCsgYtBEIaUujk_14openrouter_api5types9providersNtB2_8Provider21privacy_policy_domain
FN:72,_RNvMNtNtCsgYtBEIaUujk_14openrouter_api5types9providersNtB2_8Provider23terms_of_service_domain
FN:25,_RNvMNtNtCsgYtBEIaUujk_14openrouter_api5types9providersNtB2_8Provider3new
FN:114,_RNvMs_NtNtCsgYtBEIaUujk_14openrouter_api5types9providersNtB4_17ProvidersResponse12find_by_name
FN:109,_RNvMs_NtNtCsgYtBEIaUujk_14openrouter_api5types9providersNtB4_17ProvidersResponse12find_by_slug
FN:175,_RNvMs_NtNtCsgYtBEIaUujk_14openrouter_api5types9providersNtB4_17ProvidersResponse12sorted_names
FN:164,_RNvMs_NtNtCsgYtBEIaUujk_14openrouter_api5types9providersNtB4_17ProvidersResponse12sorted_slugs
FN:145,_RNvMs_NtNtCsgYtBEIaUujk_14openrouter_api5types9providersNtB4_17ProvidersResponse15group_by_domain
FN:137,_RNvMs_NtNtCsgYtBEIaUujk_14openrouter_api5types9providersNtB4_17ProvidersResponse16with_status_page
FN:121,_RNvMs_NtNtCsgYtBEIaUujk_14openrouter_api5types9providersNtB4_17ProvidersResponse19with_privacy_policy
FN:129,_RNvMs_NtNtCsgYtBEIaUujk_14openrouter_api5types9providersNtB4_17ProvidersResponse21with_terms_of_service
FN:99,_RNvMs_NtNtCsgYtBEIaUujk_14openrouter_api5types9providersNtB4_17ProvidersResponse3new
FN:104,_RNvMs_NtNtCsgYtBEIaUujk_14openrouter_api5types9providersNtB4_17ProvidersResponse5count
FNDA:0,_RNvMNtNtCsgl6iEIT30H0_14openrouter_api5types9providersNtB2_8Provider15has_status_page
FNDA:0,_RNvMNtNtCsgl6iEIT30H0_14openrouter_api5types9providersNtB2_8Provider18has_privacy_policy
FNDA:0,_RNvMNtNtCsgl6iEIT30H0_14openrouter_api5types9providersNtB2_8Provider18status_page_domain
FNDA:0,_RNvMNtNtCsgl6iEIT30H0_14openrouter_api5types9providersNtB2_8Provider20has_terms_of_service
FNDA:0,_RNvMNtNtCsgl6iEIT30H0_14openrouter_api5types9providersNtB2_8Provider21privacy_policy_domain
FNDA:0,_RNvMNtNtCsgl6iEIT30H0_14openrouter_api5types9providersNtB2_8Provider23terms_of_service_domain
FNDA:0,_RNvMNtNtCsgl6iEIT30H0_14openrouter_api5types9providersNtB2_8Provider3new
FNDA:0,_RNvMs_NtNtCsgl6iEIT30H0_14openrouter_api5types9providersNtB4_17ProvidersResponse12find_by_name
FNDA:0,_RNvMs_NtNtCsgl6iEIT30H0_14openrouter_api5types9providersNtB4_17ProvidersResponse12find_by_slug
FNDA:0,_RNvMs_NtNtCsgl6iEIT30H0_14openrouter_api5types9providersNtB4_17ProvidersResponse12sorted_names
FNDA:0,_RNvMs_NtNtCsgl6iEIT30H0_14openrouter_api5types9providersNtB4_17ProvidersResponse12sorted_slugs
FNDA:0,_RNvMs_NtNtCsgl6iEIT30H0_14openrouter_api5types9providersNtB4_17ProvidersResponse15group_by_domain
FNDA:0,_RNvMs_NtNtCsgl6iEIT30H0_14openrouter_api5types9providersNtB4_17ProvidersResponse16with_status_page
FNDA:0,_RNvMs_NtNtCsgl6iEIT30H0_14openrouter_api5types9providersNtB4_17ProvidersResponse19with_privacy_policy
FNDA:0,_RNvMs_NtNtCsgl6iEIT30H0_14openrouter_api5types9providersNtB4_17ProvidersResponse21with_terms_of_service
FNDA:0,_RNvMs_NtNtCsgl6iEIT30H0_14openrouter_api5types9providersNtB4_17ProvidersResponse3new
FNDA:0,_RNvMs_NtNtCsgl6iEIT30H0_14openrouter_api5types9providersNtB4_17ProvidersResponse5count
FNDA:0,_RNCNCNCNvMNtNtCsgl6iEIT30H0_14openrouter_api5types9providersNtB8_8Provider18status_page_domain000Bc_
FNDA:0,_RNCNCNCNvMNtNtCsgl6iEIT30H0_14openrouter_api5types9providersNtB8_8Provider21privacy_policy_domain000Bc_
FNDA:0,_RNCNCNCNvMNtNtCsgl6iEIT30H0_14openrouter_api5types9providersNtB8_8Provider23terms_of_service_domain000Bc_
FNDA:0,_RNCNCNvMNtNtCsgl6iEIT30H0_14openrouter_api5types9providersNtB6_8Provider18status_page_domain00Ba_
FNDA:0,_RNCNCNvMNtNtCsgl6iEIT30H0_14openrouter_api5types9providersNtB6_8Provider21privacy_policy_domain00Ba_
FNDA:0,_RNCNCNvMNtNtCsgl6iEIT30H0_14openrouter_api5types9providersNtB6_8Provider23terms_of_service_domain00Ba_
FNDA:0,_RNCNvMNtNtCsgl6iEIT30H0_14openrouter_api5types9providersNtB4_8Provider15has_status_page0B8_
FNDA:0,_RNCNvMNtNtCsgl6iEIT30H0_14openrouter_api5types9providersNtB4_8Provider18has_privacy_policy0B8_
FNDA:0,_RNCNvMNtNtCsgl6iEIT30H0_14openrouter_api5types9providersNtB4_8Provider18status_page_domain0B8_
FNDA:0,_RNCNvMNtNtCsgl6iEIT30H0_14openrouter_api5types9providersNtB4_8Provider20has_terms_of_service0B8_
FNDA:0,_RNCNvMNtNtCsgl6iEIT30H0_14openrouter_api5types9providersNtB4_8Provider21privacy_policy_domain0B8_
FNDA:0,_RNCNvMNtNtCsgl6iEIT30H0_14openrouter_api5types9providersNtB4_8Provider23terms_of_service_domain0B8_
FNDA:0,_RNCNvMs_NtNtCsgl6iEIT30H0_14openrouter_api5types9providersNtB6_17ProvidersResponse12find_by_name0Ba_
FNDA:0,_RNCNvMs_NtNtCsgl6iEIT30H0_14openrouter_api5types9providersNtB6_17ProvidersResponse12find_by_slug0Ba_
FNDA:0,_RNCNvMs_NtNtCsgl6iEIT30H0_14openrouter_api5types9providersNtB6_17ProvidersResponse12sorted_names0Ba_
FNDA:0,_RNCNvMs_NtNtCsgl6iEIT30H0_14openrouter_api5types9providersNtB6_17ProvidersResponse12sorted_slugs0Ba_
FNDA:0,_RNCNvMs_NtNtCsgl6iEIT30H0_14openrouter_api5types9providersNtB6_17ProvidersResponse15group_by_domain0Ba_
FNDA:0,_RNCNvMs_NtNtCsgl6iEIT30H0_14openrouter_api5types9providersNtB6_17ProvidersResponse15group_by_domains0_0Ba_
FNDA:0,_RNCNvMs_NtNtCsgl6iEIT30H0_14openrouter_api5types9providersNtB6_17ProvidersResponse15group_by_domains_0Ba_
FNDA:0,_RNCNvMs_NtNtCsgl6iEIT30H0_14openrouter_api5types9providersNtB6_17ProvidersResponse16with_status_page0Ba_
FNDA:0,_RNCNvMs_NtNtCsgl6iEIT30H0_14openrouter_api5types9providersNtB6_17ProvidersResponse19with_privacy_policy0Ba_
FNDA:0,_RNCNvMs_NtNtCsgl6iEIT30H0_14openrouter_api5types9providersNtB6_17ProvidersResponse21with_terms_of_service0Ba_
FNDA:5,_RNCNvNtNtNtCsgYtBEIaUujk_14openrouter_api5types9providers5testss_28test_provider_url_validation0B9_
FNDA:1,_RNvNtNtNtCsgYtBEIaUujk_14openrouter_api5types9providers5testss_20test_group_by_domain
FNDA:1,_RNvNtNtNtCsgYtBEIaUujk_14openrouter_api5types9providers5testss_22test_domain_extraction
FNDA:1,_RNvNtNtNtCsgYtBEIaUujk_14openrouter_api5types9providers5testss_22test_provider_creation
FNDA:1,_RNvNtNtNtCsgYtBEIaUujk_14openrouter_api5types9providers5testss_23test_providers_response
FNDA:1,_RNvNtNtNtCsgYtBEIaUujk_14openrouter_api5types9providers5testss_24test_provider_edge_cases
FNDA:1,_RNvNtNtNtCsgYtBEIaUujk_14openrouter_api5types9providers5testss_26test_provider_without_urls
FNDA:1,_RNvNtNtNtCsgYtBEIaUujk_14openrouter_api5types9providers5testss_28test_provider_url_validation
FNDA:1,_RNvNtNtNtCsgYtBEIaUujk_14openrouter_api5types9providers5testss_34test_providers_response_edge_cases
FNDA:3,_RNCNCNCNvMNtNtCsgYtBEIaUujk_14openrouter_api5types9providersNtB8_8Provider18status_page_domain000Bc_
FNDA:12,_RNCNCNCNvMNtNtCsgYtBEIaUujk_14openrouter_api5types9providersNtB8_8Provider21privacy_policy_domain000Bc_
FNDA:2,_RNCNCNCNvMNtNtCsgYtBEIaUujk_14openrouter_api5types9providersNtB8_8Provider23terms_of_service_domain000Bc_
FNDA:3,_RNCNCNvMNtNtCsgYtBEIaUujk_14openrouter_api5types9providersNtB6_8Provider18status_page_domain00Ba_
FNDA:13,_RNCNCNvMNtNtCsgYtBEIaUujk_14openrouter_api5types9providersNtB6_8Provider21privacy_policy_domain00Ba_
FNDA:2,_RNCNCNvMNtNtCsgYtBEIaUujk_14openrouter_api5types9providersNtB6_8Provider23terms_of_service_domain00Ba_
FNDA:4,_RNCNvMNtNtCsgYtBEIaUujk_14openrouter_api5types9providersNtB4_8Provider15has_status_page0B8_
FNDA:8,_RNCNvMNtNtCsgYtBEIaUujk_14openrouter_api5types9providersNtB4_8Provider18has_privacy_policy0B8_
FNDA:4,_RNCNvMNtNtCsgYtBEIaUujk_14openrouter_api5types9providersNtB4_8Provider18status_page_domain0B8_
FNDA:6,_RNCNvMNtNtCsgYtBEIaUujk_14openrouter_api5types9providersNtB4_8Provider20has_terms_of_service0B8_
FNDA:18,_RNCNvMNtNtCsgYtBEIaUujk_14openrouter_api5types9providersNtB4_8Provider21privacy_policy_domain0B8_
FNDA:4,_RNCNvMNtNtCsgYtBEIaUujk_14openrouter_api5types9providersNtB4_8Provider23terms_of_service_domain0B8_
FNDA:17,_RNCNvMs_NtNtCsgYtBEIaUujk_14openrouter_api5types9providersNtB6_17ProvidersResponse12find_by_name0Ba_
FNDA:7,_RNCNvMs_NtNtCsgYtBEIaUujk_14openrouter_api5types9providersNtB6_17ProvidersResponse12find_by_slug0Ba_
FNDA:3,_RNCNvMs_NtNtCsgYtBEIaUujk_14openrouter_api5types9providersNtB6_17ProvidersResponse12sorted_names0Ba_
FNDA:3,_RNCNvMs_NtNtCsgYtBEIaUujk_14openrouter_api5types9providersNtB6_17ProvidersResponse12sorted_slugs0Ba_
FNDA:1,_RNCNvMs_NtNtCsgYtBEIaUujk_14openrouter_api5types9providersNtB6_17ProvidersResponse15group_by_domain0Ba_
FNDA:1,_RNCNvMs_NtNtCsgYtBEIaUujk_14openrouter_api5types9providersNtB6_17ProvidersResponse15group_by_domains0_0Ba_
FNDA:1,_RNCNvMs_NtNtCsgYtBEIaUujk_14openrouter_api5types9providersNtB6_17ProvidersResponse15group_by_domains_0Ba_
FNDA:5,_RNCNvMs_NtNtCsgYtBEIaUujk_14openrouter_api5types9providersNtB6_17ProvidersResponse16with_status_page0Ba_
FNDA:5,_RNCNvMs_NtNtCsgYtBEIaUujk_14openrouter_api5types9providersNtB6_17ProvidersResponse19with_privacy_policy0Ba_
FNDA:5,_RNCNvMs_NtNtCsgYtBEIaUujk_14openrouter_api5types9providersNtB6_17ProvidersResponse21with_terms_of_service0Ba_
FNDA:10,_RNvMNtNtCsgYtBEIaUujk_14openrouter_api5types9providersNtB2_8Provider15has_status_page
FNDA:11,_RNvMNtNtCsgYtBEIaUujk_14openrouter_api5types9providersNtB2_8Provider18has_privacy_policy
FNDA:6,_RNvMNtNtCsgYtBEIaUujk_14openrouter_api5types9providersNtB2_8Provider18status_page_domain
FNDA:10,_RNvMNtNtCsgYtBEIaUujk_14openrouter_api5types9providersNtB2_8Provider20has_terms_of_service
FNDA:20,_RNvMNtNtCsgYtBEIaUujk_14openrouter_api5types9providersNtB2_8Provider21privacy_policy_domain
FNDA:7,_RNvMNtNtCsgYtBEIaUujk_14openrouter_api5types9providersNtB2_8Provider23terms_of_service_domain
FNDA:26,_RNvMNtNtCsgYtBEIaUujk_14openrouter_api5types9providersNtB2_8Provider3new
FNDA:11,_RNvMs_NtNtCsgYtBEIaUujk_14openrouter_api5types9providersNtB4_17ProvidersResponse12find_by_name
FNDA:5,_RNvMs_NtNtCsgYtBEIaUujk_14openrouter_api5types9providersNtB4_17ProvidersResponse12find_by_slug
FNDA:2,_RNvMs_NtNtCsgYtBEIaUujk_14openrouter_api5types9providersNtB4_17ProvidersResponse12sorted_names
FNDA:2,_RNvMs_NtNtCsgYtBEIaUujk_14openrouter_api5types9providersNtB4_17ProvidersResponse12sorted_slugs
FNDA:2,_RNvMs_NtNtCsgYtBEIaUujk_14openrouter_api5types9providersNtB4_17ProvidersResponse15group_by_domain
FNDA:3,_RNvMs_NtNtCsgYtBEIaUujk_14openrouter_api5types9providersNtB4_17ProvidersResponse16with_status_page
FNDA:3,_RNvMs_NtNtCsgYtBEIaUujk_14openrouter_api5types9providersNtB4_17ProvidersResponse19with_privacy_policy
FNDA:3,_RNvMs_NtNtCsgYtBEIaUujk_14openrouter_api5types9providersNtB4_17ProvidersResponse21with_terms_of_service
FNDA:6,_RNvMs_NtNtCsgYtBEIaUujk_14openrouter_api5types9providersNtB4_17ProvidersResponse3new
FNDA:3,_RNvMs_NtNtCsgYtBEIaUujk_14openrouter_api5types9providersNtB4_17ProvidersResponse5count
FNF:48
FNH:48
DA:25,26
DA:26,26
DA:27,26
DA:28,26
DA:29,26
DA:30,26
DA:31,26
DA:32,26
DA:33,26
DA:34,26
DA:35,26
DA:36,26
DA:37,26
DA:38,26
DA:39,26
DA:42,11
DA:43,11
DA:44,11
DA:45,11
DA:46,11
DA:49,10
DA:50,10
DA:51,10
DA:52,10
DA:53,10
DA:56,10
DA:57,10
DA:58,10
DA:59,10
DA:60,10
DA:63,20
DA:64,20
DA:65,18
DA:66,18
DA:67,18
DA:68,18
DA:69,20
DA:72,7
DA:73,7
DA:74,4
DA:75,4
DA:76,4
DA:77,4
DA:78,7
DA:81,6
DA:82,6
DA:83,4
DA:84,4
DA:85,4
DA:86,4
DA:87,6
DA:99,6
DA:100,6
DA:101,6
DA:104,3
DA:105,3
DA:106,3
DA:109,5
DA:110,7
DA:111,5
DA:114,11
DA:115,11
DA:116,11
DA:117,17
DA:118,11
DA:121,3
DA:122,3
DA:123,3
DA:124,5
DA:125,3
DA:126,3
DA:129,3
DA:130,3
DA:131,3
DA:132,5
DA:133,3
DA:134,3
DA:137,3
DA:138,3
DA:139,3
DA:140,5
DA:141,3
DA:142,3
DA:145,2
DA:146,2
DA:148,7
DA:150,5
DA:151,5
DA:152,5
DA:153,5
DA:154,5
DA:156,5
DA:157,5
DA:160,2
DA:161,2
DA:164,2
DA:165,2
DA:166,2
DA:167,2
DA:168,3
DA:169,2
DA:170,2
DA:171,2
DA:172,2
DA:175,2
DA:176,2
DA:177,2
DA:178,2
DA:179,3
DA:180,2
DA:181,2
DA:182,2
DA:183,2
DA:191,1
DA:192,1
DA:193,1
DA:194,1
DA:195,1
DA:196,1
DA:197,1
DA:200,1
DA:201,1
DA:202,1
DA:203,1
DA:204,1
DA:205,1
DA:208,1
DA:209,1
DA:210,1
DA:211,1
DA:212,1
DA:213,1
DA:214,1
DA:217,1
DA:218,1
DA:219,1
DA:220,1
DA:223,1
DA:224,1
DA:225,1
DA:226,1
DA:227,1
DA:228,1
DA:229,1
DA:230,1
DA:232,1
DA:233,1
DA:234,1
DA:235,1
DA:236,1
DA:237,1
DA:241,1
DA:243,1
DA:244,1
DA:245,1
DA:246,1
DA:249,1
DA:251,1
DA:252,1
DA:253,1
DA:254,1
DA:257,1
DA:258,1
DA:259,1
DA:260,1
DA:261,1
DA:262,1
DA:263,1
DA:266,1
DA:267,1
DA:268,1
DA:270,1
DA:271,1
DA:274,1
DA:275,1
DA:276,1
DA:277,1
DA:278,1
DA:279,1
DA:280,1
DA:281,1
DA:283,1
DA:284,1
DA:285,1
DA:286,1
DA:287,1
DA:288,1
DA:292,1
DA:293,1
DA:295,1
DA:296,1
DA:297,1
DA:300,1
DA:302,1
DA:303,1
DA:304,1
DA:305,1
DA:306,1
DA:307,1
DA:310,1
DA:311,1
DA:312,1
DA:315,1
DA:316,1
DA:317,1
DA:318,1
DA:319,1
DA:323,1
DA:324,1
DA:325,1
DA:326,1
DA:327,1
DA:328,1
DA:331,1
DA:332,1
DA:333,1
DA:336,1
DA:338,1
DA:339,1
DA:340,1
DA:341,1
DA:342,1
DA:343,1
DA:344,1
DA:345,1
DA:346,1
DA:349,1
DA:350,1
DA:351,1
DA:352,1
DA:353,1
DA:354,1
DA:355,1
DA:356,1
DA:360,1
DA:363,1
DA:364,1
DA:365,1
DA:366,1
DA:367,1
DA:368,1
DA:371,1
DA:372,1
DA:373,1
DA:376,1
DA:378,1
DA:379,1
DA:380,1
DA:381,1
DA:382,1
DA:383,1
DA:384,1
DA:385,1
DA:386,1
DA:389,9
DA:390,8
DA:391,8
DA:392,8
DA:393,8
DA:394,8
DA:395,8
DA:398,8
DA:400,8
DA:401,8
DA:402,8
DA:405,1
BRF:0
BRH:0
LF:289
LH:289
end_of_record
SF:/Volumes/Everything/Development/openrouter_api/src/types/routing.rs
FN:96,_RNvMNtNtCsgYtBEIaUujk_14openrouter_api5types7routingNtB2_11ModelGroups12long_context
FN:81,_RNvMNtNtCsgYtBEIaUujk_14openrouter_api5types7routingNtB2_11ModelGroups4code
FN:65,_RNvMNtNtCsgYtBEIaUujk_14openrouter_api5types7routingNtB2_11ModelGroups7general
FNDA:0,_RNvMNtNtCsgYtBEIaUujk_14openrouter_api5types7routingNtB2_11ModelGroups12long_context
FNDA:0,_RNvMNtNtCsgYtBEIaUujk_14openrouter_api5types7routingNtB2_11ModelGroups4code
FNDA:0,_RNvMNtNtCsgYtBEIaUujk_14openrouter_api5types7routingNtB2_11ModelGroups7general
FNF:3
FNH:0
DA:65,0
DA:66,0
DA:67,0
DA:68,0
DA:69,0
DA:70,0
DA:71,0
DA:72,0
DA:73,0
DA:74,0
DA:75,0
DA:76,0
DA:77,0
DA:78,0
DA:81,0
DA:82,0
DA:83,0
DA:84,0
DA:85,0
DA:86,0
DA:87,0
DA:88,0
DA:89,0
DA:90,0
DA:91,0
DA:92,0
DA:93,0
DA:96,0
DA:97,0
DA:98,0
DA:99,0
DA:100,0
DA:101,0
DA:102,0
DA:103,0
DA:104,0
DA:105,0
DA:106,0
DA:107,0
DA:108,0
BRF:0
BRH:0
LF:40
LH:0
end_of_record
SF:/Volumes/Everything/Development/openrouter_api/src/utils/auth.rs
FN:30,_RNvNtNtCsgl6iEIT30H0_14openrouter_api5utils4auth16validate_api_key
FN:9,_RNvNtNtCsgl6iEIT30H0_14openrouter_api5utils4auth21load_api_key_from_env
FN:49,_RNvNtNtCsgl6iEIT30H0_14openrouter_api5utils4auth28load_secure_api_key_from_env
FN:30,_RNvNtNtCsgYtBEIaUujk_14openrouter_api5utils4auth16validate_api_key
FN:9,_RNvNtNtCsgYtBEIaUujk_14openrouter_api5utils4auth21load_api_key_from_env
FN:49,_RNvNtNtCsgYtBEIaUujk_14openrouter_api5utils4auth28load_secure_api_key_from_env
FNDA:0,_RNvNtNtCsgl6iEIT30H0_14openrouter_api5utils4auth16validate_api_key
FNDA:0,_RNvNtNtCsgl6iEIT30H0_14openrouter_api5utils4auth21load_api_key_from_env
FNDA:0,_RNvNtNtCsgl6iEIT30H0_14openrouter_api5utils4auth28load_secure_api_key_from_env
FNDA:15,_RNvNtNtCsgYtBEIaUujk_14openrouter_api5utils4auth16validate_api_key
FNDA:13,_RNvNtNtCsgYtBEIaUujk_14openrouter_api5utils4auth21load_api_key_from_env
FNDA:3,_RNvNtNtCsgYtBEIaUujk_14openrouter_api5utils4auth28load_secure_api_key_from_env
FNF:3
FNH:3
DA:9,13
DA:11,13
DA:12,10
DA:13,8
DA:14,2
DA:15,3
DA:17,5
DA:18,1
DA:19,1
DA:20,0
DA:21,4
DA:23,4
DA:24,4
DA:25,4
DA:26,13
DA:30,15
DA:31,15
DA:33,15
DA:34,2
DA:35,13
DA:37,13
DA:38,1
DA:39,12
DA:44,12
DA:45,15
DA:49,3
DA:50,3
DA:51,2
DA:52,3
BRF:0
BRH:0
LF:29
LH:28
end_of_record
SF:/Volumes/Everything/Development/openrouter_api/src/utils/auth_tests.rs
FN:207,_RNvNtNtNtNtCsgYtBEIaUujk_14openrouter_api5utils4auth10auth_tests5testss_27test_validate_api_key_empty
FN:201,_RNvNtNtNtNtCsgYtBEIaUujk_14openrouter_api5utils4auth10auth_tests5testss_27test_validate_api_key_valid
FN:172,_RNvNtNtNtNtCsgYtBEIaUujk_14openrouter_api5utils4auth10auth_tests5testss_31test_auth_functions_thread_safe
FN:219,_RNvNtNtNtNtCsgYtBEIaUujk_14openrouter_api5utils4auth10auth_tests5testss_31test_validate_api_key_too_short
FN:213,_RNvNtNtNtNtCsgYtBEIaUujk_14openrouter_api5utils4auth10auth_tests5testss_32test_validate_api_key_whitespace
FN:225,_RNvNtNtNtNtCsgYtBEIaUujk_14openrouter_api5utils4auth10auth_tests5testss_37test_validate_api_key_with_whitespace
FN:183,_RNCNCNvNtNtNtNtCsgYtBEIaUujk_14openrouter_api5utils4auth10auth_tests5testss_31test_auth_functions_thread_safe00Bd_
FN:146,_RNCNCNvNtNtNtNtCsgYtBEIaUujk_14openrouter_api5utils4auth10auth_tests5testss_36test_api_key_integration_with_client00Bd_
FN:275,_RNCNvNtNtNtNtCsgYtBEIaUujk_14openrouter_api5utils4auth10auth_tests5testss_24test_or_api_key_fallback0Bb_
FN:290,_RNCNvNtNtNtNtCsgYtBEIaUujk_14openrouter_api5utils4auth10auth_tests5testss_24test_or_api_key_priority0Bb_
FN:181,_RNCNvNtNtNtNtCsgYtBEIaUujk_14openrouter_api5utils4auth10auth_tests5testss_31test_auth_functions_thread_safe0Bb_
FN:108,_RNCNvNtNtNtNtCsgYtBEIaUujk_14openrouter_api5utils4auth10auth_tests5testss_31test_load_api_key_with_newlines0Bb_
FN:51,_RNCNvNtNtNtNtCsgYtBEIaUujk_14openrouter_api5utils4auth10auth_tests5testss_32test_load_api_key_from_env_empty0Bb_
FN:34,_RNCNvNtNtNtNtCsgYtBEIaUujk_14openrouter_api5utils4auth10auth_tests5testss_34test_load_api_key_from_env_missing0Bb_
FN:13,_RNCNvNtNtNtNtCsgYtBEIaUujk_14openrouter_api5utils4auth10auth_tests5testss_34test_load_api_key_from_env_success0Bb_
FN:87,_RNCNvNtNtNtNtCsgYtBEIaUujk_14openrouter_api5utils4auth10auth_tests5testss_35test_load_api_key_returns_raw_value0Bb_
FN:146,_RNCNvNtNtNtNtCsgYtBEIaUujk_14openrouter_api5utils4auth10auth_tests5testss_36test_api_key_integration_with_client0Bb_
FN:69,_RNCNvNtNtNtNtCsgYtBEIaUujk_14openrouter_api5utils4auth10auth_tests5testss_37test_load_api_key_from_env_whitespace0Bb_
FN:253,_RNCNvNtNtNtNtCsgYtBEIaUujk_14openrouter_api5utils4auth10auth_tests5testss_41test_load_secure_api_key_from_env_invalid0Bb_
FN:265,_RNCNvNtNtNtNtCsgYtBEIaUujk_14openrouter_api5utils4auth10auth_tests5testss_41test_load_secure_api_key_from_env_missing0Bb_
FN:232,_RNCNvNtNtNtNtCsgYtBEIaUujk_14openrouter_api5utils4auth10auth_tests5testss_41test_load_secure_api_key_from_env_success0Bb_
FN:126,_RNCNvNtNtNtNtCsgYtBEIaUujk_14openrouter_api5utils4auth10auth_tests5testss_44test_load_api_key_preserves_internal_content0Bb_
FNDA:1,_RNvNtNtNtNtCsgYtBEIaUujk_14openrouter_api5utils4auth10auth_tests5testss_27test_validate_api_key_empty
FNDA:1,_RNvNtNtNtNtCsgYtBEIaUujk_14openrouter_api5utils4auth10auth_tests5testss_27test_validate_api_key_valid
FNDA:1,_RNvNtNtNtNtCsgYtBEIaUujk_14openrouter_api5utils4auth10auth_tests5testss_31test_auth_functions_thread_safe
FNDA:1,_RNvNtNtNtNtCsgYtBEIaUujk_14openrouter_api5utils4auth10auth_tests5testss_31test_validate_api_key_too_short
FNDA:1,_RNvNtNtNtNtCsgYtBEIaUujk_14openrouter_api5utils4auth10auth_tests5testss_32test_validate_api_key_whitespace
FNDA:1,_RNvNtNtNtNtCsgYtBEIaUujk_14openrouter_api5utils4auth10auth_tests5testss_37test_validate_api_key_with_whitespace
FNDA:10,_RNCNCNvNtNtNtNtCsgYtBEIaUujk_14openrouter_api5utils4auth10auth_tests5testss_31test_auth_functions_thread_safe00Bd_
FNDA:1,_RNCNCNvNtNtNtNtCsgYtBEIaUujk_14openrouter_api5utils4auth10auth_tests5testss_36test_api_key_integration_with_client00Bd_
FNDA:1,_RNCNvNtNtNtNtCsgYtBEIaUujk_14openrouter_api5utils4auth10auth_tests5testss_24test_or_api_key_fallback0Bb_
FNDA:1,_RNCNvNtNtNtNtCsgYtBEIaUujk_14openrouter_api5utils4auth10auth_tests5testss_24test_or_api_key_priority0Bb_
FNDA:10,_RNCNvNtNtNtNtCsgYtBEIaUujk_14openrouter_api5utils4auth10auth_tests5testss_31test_auth_functions_thread_safe0Bb_
FNDA:1,_RNCNvNtNtNtNtCsgYtBEIaUujk_14openrouter_api5utils4auth10auth_tests5testss_31test_load_api_key_with_newlines0Bb_
FNDA:1,_RNCNvNtNtNtNtCsgYtBEIaUujk_14openrouter_api5utils4auth10auth_tests5testss_32test_load_api_key_from_env_empty0Bb_
FNDA:1,_RNCNvNtNtNtNtCsgYtBEIaUujk_14openrouter_api5utils4auth10auth_tests5testss_34test_load_api_key_from_env_missing0Bb_
FNDA:1,_RNCNvNtNtNtNtCsgYtBEIaUujk_14openrouter_api5utils4auth10auth_tests5testss_34test_load_api_key_from_env_success0Bb_
FNDA:1,_RNCNvNtNtNtNtCsgYtBEIaUujk_14openrouter_api5utils4auth10auth_tests5testss_35test_load_api_key_returns_raw_value0Bb_
FNDA:1,_RNCNvNtNtNtNtCsgYtBEIaUujk_14openrouter_api5utils4auth10auth_tests5testss_36test_api_key_integration_with_client0Bb_
FNDA:1,_RNCNvNtNtNtNtCsgYtBEIaUujk_14openrouter_api5utils4auth10auth_tests5testss_37test_load_api_key_from_env_whitespace0Bb_
FNDA:1,_RNCNvNtNtNtNtCsgYtBEIaUujk_14openrouter_api5utils4auth10auth_tests5testss_41test_load_secure_api_key_from_env_invalid0Bb_
FNDA:1,_RNCNvNtNtNtNtCsgYtBEIaUujk_14openrouter_api5utils4auth10auth_tests5testss_41test_load_secure_api_key_from_env_missing0Bb_
FNDA:1,_RNCNvNtNtNtNtCsgYtBEIaUujk_14openrouter_api5utils4auth10auth_tests5testss_41test_load_secure_api_key_from_env_success0Bb_
FNDA:1,_RNCNvNtNtNtNtCsgYtBEIaUujk_14openrouter_api5utils4auth10auth_tests5testss_44test_load_api_key_preserves_internal_content0Bb_
FNF:21
FNH:21
DA:13,1
DA:15,1
DA:16,1
DA:19,1
DA:24,1
DA:25,1
DA:26,1
DA:29,1
DA:34,1
DA:36,1
DA:38,1
DA:39,1
DA:41,1
DA:43,1
DA:44,1
DA:45,1
DA:46,0
DA:51,1
DA:53,1
DA:55,1
DA:56,1
DA:58,1
DA:59,1
DA:60,1
DA:61,0
DA:64,1
DA:69,1
DA:71,1
DA:73,1
DA:74,1
DA:76,1
DA:77,1
DA:78,1
DA:79,0
DA:82,1
DA:87,1
DA:89,1
DA:94,1
DA:95,1
DA:97,1
DA:98,1
DA:103,1
DA:108,1
DA:110,1
DA:115,1
DA:116,1
DA:118,1
DA:121,1
DA:126,1
DA:128,1
DA:131,1
DA:132,1
DA:134,1
DA:136,1
DA:137,1
DA:138,1
DA:141,1
DA:146,2
DA:151,1
DA:152,1
DA:154,1
DA:159,1
DA:160,1
DA:161,1
DA:162,1
DA:163,1
DA:165,1
DA:168,1
DA:172,1
DA:179,1
DA:180,1
DA:181,10
DA:182,10
DA:183,10
DA:184,10
DA:185,10
DA:186,10
DA:187,10
DA:188,10
DA:189,10
DA:190,1
DA:192,11
DA:193,10
DA:194,10
DA:197,1
DA:198,1
DA:201,1
DA:202,1
DA:203,1
DA:204,1
DA:207,1
DA:208,1
DA:209,1
DA:210,1
DA:213,1
DA:214,1
DA:215,1
DA:216,1
DA:219,1
DA:220,1
DA:221,1
DA:222,1
DA:225,1
DA:226,1
DA:227,1
DA:228,1
DA:232,1
DA:233,1
DA:238,1
DA:239,1
DA:241,1
DA:242,1
DA:243,1
DA:248,1
DA:253,1
DA:254,1
DA:256,1
DA:257,1
DA:260,1
DA:265,1
DA:266,1
DA:267,1
DA:269,1
DA:270,1
DA:275,1
DA:277,1
DA:278,1
DA:280,1
DA:281,1
DA:282,1
DA:285,1
DA:290,1
DA:292,1
DA:293,1
DA:295,1
DA:296,1
DA:297,1
DA:300,1
DA:301,1
BRF:0
BRH:0
LF:141
LH:138
end_of_record
SF:/Volumes/Everything/Development/openrouter_api/src/utils/cache.rs
FN:21,_RNvMNtNtCsgl6iEIT30H0_14openrouter_api5utils5cacheINtB2_5CacheNtNtCsk11oWLwBebd_5alloc6string6StringNtNtNtB6_5types9providers17ProvidersResponseE3newB6_
FN:64,_RNvMNtNtCsgYtBEIaUujk_14openrouter_api5utils5cacheINtB2_5CacheppE5clearB6_
FN:74,_RNvMNtNtCsgYtBEIaUujk_14openrouter_api5utils5cacheINtB2_5CacheppE8is_emptyB6_
FN:104,_RNvNtNtNtCsgYtBEIaUujk_14openrouter_api5utils5cache5testss_14test_cache_ttl
FN:131,_RNvNtNtNtCsgYtBEIaUujk_14openrouter_api5utils5cache5testss_18test_cache_cleanup
FN:116,_RNvNtNtNtCsgYtBEIaUujk_14openrouter_api5utils5cache5testss_21test_cache_custom_ttl
FN:85,_RNvNtNtNtCsgYtBEIaUujk_14openrouter_api5utils5cache5testss_27test_cache_basic_operations
FN:60,_RNCNvMNtNtCsgYtBEIaUujk_14openrouter_api5utils5cacheINtB4_5CacheNtNtCsk11oWLwBebd_5alloc6string6StringB10_E15cleanup_expired0B8_
FN:58,_RNvMNtNtCsgYtBEIaUujk_14openrouter_api5utils5cacheINtB2_5CacheNtNtCsk11oWLwBebd_5alloc6string6StringBY_E15cleanup_expiredB6_
FN:34,_RNvMNtNtCsgYtBEIaUujk_14openrouter_api5utils5cacheINtB2_5CacheNtNtCsk11oWLwBebd_5alloc6string6StringBY_E15insert_with_ttlB6_
FN:40,_RNvMNtNtCsgYtBEIaUujk_14openrouter_api5utils5cacheINtB2_5CacheNtNtCsk11oWLwBebd_5alloc6string6StringBY_E3getB6_
FN:69,_RNvMNtNtCsgYtBEIaUujk_14openrouter_api5utils5cacheINtB2_5CacheNtNtCsk11oWLwBebd_5alloc6string6StringBY_E3lenB6_
FN:21,_RNvMNtNtCsgYtBEIaUujk_14openrouter_api5utils5cacheINtB2_5CacheNtNtCsk11oWLwBebd_5alloc6string6StringBY_E3newB6_
FN:29,_RNvMNtNtCsgYtBEIaUujk_14openrouter_api5utils5cacheINtB2_5CacheNtNtCsk11oWLwBebd_5alloc6string6StringBY_E6insertB6_
FN:53,_RNvMNtNtCsgYtBEIaUujk_14openrouter_api5utils5cacheINtB2_5CacheNtNtCsk11oWLwBebd_5alloc6string6StringBY_E6removeB6_
FN:34,_RNvMNtNtCsgYtBEIaUujk_14openrouter_api5utils5cacheINtB2_5CacheNtNtCsk11oWLwBebd_5alloc6string6StringNtNtNtB6_5types9providers17ProvidersResponseE15insert_with_ttlB6_
FN:40,_RNvMNtNtCsgYtBEIaUujk_14openrouter_api5utils5cacheINtB2_5CacheNtNtCsk11oWLwBebd_5alloc6string6StringNtNtNtB6_5types9providers17ProvidersResponseE3getB6_
FN:21,_RNvMNtNtCsgYtBEIaUujk_14openrouter_api5utils5cacheINtB2_5CacheNtNtCsk11oWLwBebd_5alloc6string6StringNtNtNtB6_5types9providers17ProvidersResponseE3newB6_
FN:29,_RNvMNtNtCsgYtBEIaUujk_14openrouter_api5utils5cacheINtB2_5CacheNtNtCsk11oWLwBebd_5alloc6string6StringNtNtNtB6_5types9providers17ProvidersResponseE6insertB6_
FNDA:0,_RNvMNtNtCsgl6iEIT30H0_14openrouter_api5utils5cacheINtB2_5CacheNtNtCsk11oWLwBebd_5alloc6string6StringNtNtNtB6_5types9providers17ProvidersResponseE3newB6_
FNDA:0,_RNvMNtNtCsgYtBEIaUujk_14openrouter_api5utils5cacheINtB2_5CacheppE5clearB6_
FNDA:0,_RNvMNtNtCsgYtBEIaUujk_14openrouter_api5utils5cacheINtB2_5CacheppE8is_emptyB6_
FNDA:1,_RNvNtNtNtCsgYtBEIaUujk_14openrouter_api5utils5cache5testss_14test_cache_ttl
FNDA:1,_RNvNtNtNtCsgYtBEIaUujk_14openrouter_api5utils5cache5testss_18test_cache_cleanup
FNDA:1,_RNvNtNtNtCsgYtBEIaUujk_14openrouter_api5utils5cache5testss_21test_cache_custom_ttl
FNDA:1,_RNvNtNtNtCsgYtBEIaUujk_14openrouter_api5utils5cache5testss_27test_cache_basic_operations
FNDA:2,_RNCNvMNtNtCsgYtBEIaUujk_14openrouter_api5utils5cacheINtB4_5CacheNtNtCsk11oWLwBebd_5alloc6string6StringB10_E15cleanup_expired0B8_
FNDA:1,_RNvMNtNtCsgYtBEIaUujk_14openrouter_api5utils5cacheINtB2_5CacheNtNtCsk11oWLwBebd_5alloc6string6StringBY_E15cleanup_expiredB6_
FNDA:5,_RNvMNtNtCsgYtBEIaUujk_14openrouter_api5utils5cacheINtB2_5CacheNtNtCsk11oWLwBebd_5alloc6string6StringBY_E15insert_with_ttlB6_
FNDA:7,_RNvMNtNtCsgYtBEIaUujk_14openrouter_api5utils5cacheINtB2_5CacheNtNtCsk11oWLwBebd_5alloc6string6StringBY_E3getB6_
FNDA:2,_RNvMNtNtCsgYtBEIaUujk_14openrouter_api5utils5cacheINtB2_5CacheNtNtCsk11oWLwBebd_5alloc6string6StringBY_E3lenB6_
FNDA:4,_RNvMNtNtCsgYtBEIaUujk_14openrouter_api5utils5cacheINtB2_5CacheNtNtCsk11oWLwBebd_5alloc6string6StringBY_E3newB6_
FNDA:4,_RNvMNtNtCsgYtBEIaUujk_14openrouter_api5utils5cacheINtB2_5CacheNtNtCsk11oWLwBebd_5alloc6string6StringBY_E6insertB6_
FNDA:1,_RNvMNtNtCsgYtBEIaUujk_14openrouter_api5utils5cacheINtB2_5CacheNtNtCsk11oWLwBebd_5alloc6string6StringBY_E6removeB6_
FNDA:0,_RNvMNtNtCsgYtBEIaUujk_14openrouter_api5utils5cacheINtB2_5CacheNtNtCsk11oWLwBebd_5alloc6string6StringNtNtNtB6_5types9providers17ProvidersResponseE15insert_with_ttlB6_
FNDA:8,_RNvMNtNtCsgYtBEIaUujk_14openrouter_api5utils5cacheINtB2_5CacheNtNtCsk11oWLwBebd_5alloc6string6StringNtNtNtB6_5types9providers17ProvidersResponseE3getB6_
FNDA:5,_RNvMNtNtCsgYtBEIaUujk_14openrouter_api5utils5cacheINtB2_5CacheNtNtCsk11oWLwBebd_5alloc6string6StringNtNtNtB6_5types9providers17ProvidersResponseE3newB6_
FNDA:0,_RNvMNtNtCsgYtBEIaUujk_14openrouter_api5utils5cacheINtB2_5CacheNtNtCsk11oWLwBebd_5alloc6string6StringNtNtNtB6_5types9providers17ProvidersResponseE6insertB6_
FNF:14
FNH:12
DA:21,9
DA:22,9
DA:23,9
DA:24,9
DA:25,9
DA:26,9
DA:29,4
DA:30,4
DA:31,4
DA:34,5
DA:35,5
DA:36,5
DA:37,5
DA:40,15
DA:41,15
DA:42,5
DA:43,3
DA:44,2
DA:45,2
DA:46,2
DA:47,2
DA:48,10
DA:49,12
DA:50,15
DA:53,1
DA:54,1
DA:55,1
DA:58,1
DA:59,1
DA:60,2
DA:61,1
DA:64,0
DA:65,0
DA:66,0
DA:69,2
DA:70,2
DA:71,2
DA:74,0
DA:75,0
DA:76,0
DA:85,1
DA:86,1
DA:89,1
DA:90,1
DA:93,1
DA:96,1
DA:97,1
DA:98,1
DA:100,1
DA:101,1
DA:104,1
DA:105,1
DA:107,1
DA:108,1
DA:111,1
DA:112,1
DA:113,1
DA:116,1
DA:117,1
DA:119,1
DA:120,1
DA:121,1
DA:122,1
DA:124,1
DA:126,1
DA:127,1
DA:128,1
DA:131,1
DA:132,1
DA:134,1
DA:135,1
DA:136,1
DA:138,1
DA:139,1
DA:140,1
DA:141,1
BRF:0
BRH:0
LF:77
LH:71
end_of_record
SF:/Volumes/Everything/Development/openrouter_api/src/utils/retry.rs
FN:199,_RNvNtNtCsgl6iEIT30H0_14openrouter_api5utils5retry12next_backoff
FN:177,_RNvNtNtCsgl6iEIT30H0_14openrouter_api5utils5retry19jittered_backoff_ms
FN:205,_RNvNtNtCsgl6iEIT30H0_14openrouter_api5utils5retry20handle_response_text
FN:145,_RNvNtNtCsgl6iEIT30H0_14openrouter_api5utils5retry20parse_retry_after_ms
FN:170,_RNvNtNtCsgl6iEIT30H0_14openrouter_api5utils5retry26is_retryable_reqwest_error
FN:289,_RNvNtNtCsgl6iEIT30H0_14openrouter_api5utils5retry5elide
FN:215,_RNCNCNvNtNtCsgl6iEIT30H0_14openrouter_api5utils5retry20handle_response_text00B9_
FN:205,_RNCNvNtNtCsgl6iEIT30H0_14openrouter_api5utils5retry20handle_response_text0B7_
FN:205,_RNvNtNtCsgYtBEIaUujk_14openrouter_api5utils5retry20handle_response_text
FN:537,_RNCNCNCNCNvNtNtNtCsgYtBEIaUujk_14openrouter_api5utils5retry5testss_28test_concurrent_retry_limits0000Bf_
FN:535,_RNCNCNCNvNtNtNtCsgYtBEIaUujk_14openrouter_api5utils5retry5testss_28test_concurrent_retry_limits000Bd_
FN:532,_RNCNCNvNtNtNtCsgYtBEIaUujk_14openrouter_api5utils5retry5testss_28test_concurrent_retry_limits00Bb_
FN:624,_RNCNCNvNtNtNtCsgYtBEIaUujk_14openrouter_api5utils5retry5testss_29test_backoff_jitter_variation00Bb_
FN:459,_RNCNCNvNtNtNtCsgYtBEIaUujk_14openrouter_api5utils5retry5testss_29test_individual_retry_capping00Bb_
FN:583,_RNCNCNvNtNtNtCsgYtBEIaUujk_14openrouter_api5utils5retry5testss_29test_retry_performance_impact00Bb_
FN:408,_RNCNCNvNtNtNtCsgYtBEIaUujk_14openrouter_api5utils5retry5testss_30test_total_timeout_enforcement00Bb_
FN:499,_RNCNvNtNtNtCsgYtBEIaUujk_14openrouter_api5utils5retry5testss_28test_concurrent_retry_limits0B9_
FN:377,_RNCNvNtNtNtCsgYtBEIaUujk_14openrouter_api5utils5retry5testss_28test_retry_config_new_fields0B9_
FN:601,_RNCNvNtNtNtCsgYtBEIaUujk_14openrouter_api5utils5retry5testss_29test_backoff_jitter_variation0B9_
FN:435,_RNCNvNtNtNtCsgYtBEIaUujk_14openrouter_api5utils5retry5testss_29test_individual_retry_capping0B9_
FN:567,_RNCNvNtNtNtCsgYtBEIaUujk_14openrouter_api5utils5retry5testss_29test_retry_performance_impact0B9_
FN:359,_RNCNvNtNtNtCsgYtBEIaUujk_14openrouter_api5utils5retry5testss_30test_retry_config_status_codes0B9_
FN:396,_RNCNvNtNtNtCsgYtBEIaUujk_14openrouter_api5utils5retry5testss_30test_total_timeout_enforcement0B9_
FN:304,_RNvNtNtNtCsgYtBEIaUujk_14openrouter_api5utils5retry5testss_25test_retry_config_default
FN:499,_RNvNtNtNtCsgYtBEIaUujk_14openrouter_api5utils5retry5testss_28test_concurrent_retry_limits
FN:377,_RNvNtNtNtCsgYtBEIaUujk_14openrouter_api5utils5retry5testss_28test_retry_config_new_fields
FN:601,_RNvNtNtNtCsgYtBEIaUujk_14openrouter_api5utils5retry5testss_29test_backoff_jitter_variation
FN:435,_RNvNtNtNtCsgYtBEIaUujk_14openrouter_api5utils5retry5testss_29test_individual_retry_capping
FN:567,_RNvNtNtNtCsgYtBEIaUujk_14openrouter_api5utils5retry5testss_29test_retry_performance_impact
FN:359,_RNvNtNtNtCsgYtBEIaUujk_14openrouter_api5utils5retry5testss_30test_retry_config_status_codes
FN:396,_RNvNtNtNtCsgYtBEIaUujk_14openrouter_api5utils5retry5testss_30test_total_timeout_enforcement
FN:314,_RNvNtNtNtCsgYtBEIaUujk_14openrouter_api5utils5retry5testss_36test_exponential_backoff_calculation
FN:333,_RNvNtNtNtCsgYtBEIaUujk_14openrouter_api5utils5retry5testss_36test_parse_retry_after_delta_seconds
FN:350,_RNvNtNtNtCsgYtBEIaUujk_14openrouter_api5utils5retry5testss_37test_parse_retry_after_http_date_past
FN:340,_RNvNtNtNtCsgYtBEIaUujk_14openrouter_api5utils5retry5testss_39test_parse_retry_after_http_date_future
FN:199,_RNvNtNtCsgYtBEIaUujk_14openrouter_api5utils5retry12next_backoff
FN:177,_RNvNtNtCsgYtBEIaUujk_14openrouter_api5utils5retry19jittered_backoff_ms
FN:145,_RNvNtNtCsgYtBEIaUujk_14openrouter_api5utils5retry20parse_retry_after_ms
FN:170,_RNvNtNtCsgYtBEIaUujk_14openrouter_api5utils5retry26is_retryable_reqwest_error
FN:289,_RNvNtNtCsgYtBEIaUujk_14openrouter_api5utils5retry5elide
FN:239,_RINvNtNtCsgYtBEIaUujk_14openrouter_api5utils5retry20handle_response_jsonNtNtNtB6_5types10generation18GenerationResponseEB6_
FN:239,_RINvNtNtCsgYtBEIaUujk_14openrouter_api5utils5retry20handle_response_jsonNtNtNtB6_5types9providers17ProvidersResponseEB6_
FN:30,_RINvNtNtCsgYtBEIaUujk_14openrouter_api5utils5retry26execute_with_retry_builderNCNCNCNCNvNtB2_5testss_28test_concurrent_retry_limits0000EB6_
FN:30,_RINvNtNtCsgYtBEIaUujk_14openrouter_api5utils5retry26execute_with_retry_builderNCNCNvMNtNtB6_3api10generationNtB1l_13GenerationApi14get_generation0s_0EB6_
FN:30,_RINvNtNtCsgYtBEIaUujk_14openrouter_api5utils5retry26execute_with_retry_builderNCNCNvMNtNtB6_3api9providersNtB1l_12ProvidersApi13get_providers00EB6_
FN:30,_RINvNtNtCsgYtBEIaUujk_14openrouter_api5utils5retry26execute_with_retry_builderNCNCNvNtB2_5testss_29test_backoff_jitter_variation00EB6_
FN:30,_RINvNtNtCsgYtBEIaUujk_14openrouter_api5utils5retry26execute_with_retry_builderNCNCNvNtB2_5testss_29test_individual_retry_capping00EB6_
FN:30,_RINvNtNtCsgYtBEIaUujk_14openrouter_api5utils5retry26execute_with_retry_builderNCNCNvNtB2_5testss_29test_retry_performance_impact00EB6_
FN:30,_RINvNtNtCsgYtBEIaUujk_14openrouter_api5utils5retry26execute_with_retry_builderNCNCNvNtB2_5testss_30test_total_timeout_enforcement00EB6_
FN:242,_RNCINvNtNtCsgYtBEIaUujk_14openrouter_api5utils5retry20handle_response_jsonNtNtNtB8_5types10generation18GenerationResponseE0B8_
FN:242,_RNCINvNtNtCsgYtBEIaUujk_14openrouter_api5utils5retry20handle_response_jsonNtNtNtB8_5types9providers17ProvidersResponseE0B8_
FN:37,_RNCINvNtNtCsgYtBEIaUujk_14openrouter_api5utils5retry26execute_with_retry_builderNCNCNCNCNvNtB4_5testss_28test_concurrent_retry_limits0000E0B8_
FN:37,_RNCINvNtNtCsgYtBEIaUujk_14openrouter_api5utils5retry26execute_with_retry_builderNCNCNvMNtNtB8_3api10generationNtB1n_13GenerationApi14get_generation0s_0E0B8_
FN:37,_RNCINvNtNtCsgYtBEIaUujk_14openrouter_api5utils5retry26execute_with_retry_builderNCNCNvMNtNtB8_3api9providersNtB1n_12ProvidersApi13get_providers00E0B8_
FN:37,_RNCINvNtNtCsgYtBEIaUujk_14openrouter_api5utils5retry26execute_with_retry_builderNCNCNvNtB4_5testss_29test_backoff_jitter_variation00E0B8_
FN:37,_RNCINvNtNtCsgYtBEIaUujk_14openrouter_api5utils5retry26execute_with_retry_builderNCNCNvNtB4_5testss_29test_individual_retry_capping00E0B8_
FN:37,_RNCINvNtNtCsgYtBEIaUujk_14openrouter_api5utils5retry26execute_with_retry_builderNCNCNvNtB4_5testss_29test_retry_performance_impact00E0B8_
FN:37,_RNCINvNtNtCsgYtBEIaUujk_14openrouter_api5utils5retry26execute_with_retry_builderNCNCNvNtB4_5testss_30test_total_timeout_enforcement00E0B8_
FN:251,_RNCNCINvNtNtCsgYtBEIaUujk_14openrouter_api5utils5retry20handle_response_jsonNtNtNtBa_5types10generation18GenerationResponseE00Ba_
FN:274,_RNCNCINvNtNtCsgYtBEIaUujk_14openrouter_api5utils5retry20handle_response_jsonNtNtNtBa_5types10generation18GenerationResponseE0s_0Ba_
FN:251,_RNCNCINvNtNtCsgYtBEIaUujk_14openrouter_api5utils5retry20handle_response_jsonNtNtNtBa_5types9providers17ProvidersResponseE00Ba_
FN:274,_RNCNCINvNtNtCsgYtBEIaUujk_14openrouter_api5utils5retry20handle_response_jsonNtNtNtBa_5types9providers17ProvidersResponseE0s_0Ba_
FN:215,_RNCNCNvNtNtCsgYtBEIaUujk_14openrouter_api5utils5retry20handle_response_text00B9_
FN:205,_RNCNvNtNtCsgYtBEIaUujk_14openrouter_api5utils5retry20handle_response_text0B7_
FNDA:0,_RNvNtNtCsgl6iEIT30H0_14openrouter_api5utils5retry12next_backoff
FNDA:0,_RNvNtNtCsgl6iEIT30H0_14openrouter_api5utils5retry19jittered_backoff_ms
FNDA:0,_RNvNtNtCsgl6iEIT30H0_14openrouter_api5utils5retry20handle_response_text
FNDA:0,_RNvNtNtCsgl6iEIT30H0_14openrouter_api5utils5retry20parse_retry_after_ms
FNDA:0,_RNvNtNtCsgl6iEIT30H0_14openrouter_api5utils5retry26is_retryable_reqwest_error
FNDA:0,_RNvNtNtCsgl6iEIT30H0_14openrouter_api5utils5retry5elide
FNDA:0,_RNCNCNvNtNtCsgl6iEIT30H0_14openrouter_api5utils5retry20handle_response_text00B9_
FNDA:0,_RNCNvNtNtCsgl6iEIT30H0_14openrouter_api5utils5retry20handle_response_text0B7_
FNDA:0,_RNvNtNtCsgYtBEIaUujk_14openrouter_api5utils5retry20handle_response_text
FNDA:6,_RNCNCNCNCNvNtNtNtCsgYtBEIaUujk_14openrouter_api5utils5retry5testss_28test_concurrent_retry_limits0000Bf_
FNDA:5,_RNCNCNCNvNtNtNtCsgYtBEIaUujk_14openrouter_api5utils5retry5testss_28test_concurrent_retry_limits000Bd_
FNDA:5,_RNCNCNvNtNtNtCsgYtBEIaUujk_14openrouter_api5utils5retry5testss_28test_concurrent_retry_limits00Bb_
FNDA:4,_RNCNCNvNtNtNtCsgYtBEIaUujk_14openrouter_api5utils5retry5testss_29test_backoff_jitter_variation00Bb_
FNDA:4,_RNCNCNvNtNtNtCsgYtBEIaUujk_14openrouter_api5utils5retry5testss_29test_individual_retry_capping00Bb_
FNDA:1,_RNCNCNvNtNtNtCsgYtBEIaUujk_14openrouter_api5utils5retry5testss_29test_retry_performance_impact00Bb_
FNDA:1,_RNCNCNvNtNtNtCsgYtBEIaUujk_14openrouter_api5utils5retry5testss_30test_total_timeout_enforcement00Bb_
FNDA:1,_RNCNvNtNtNtCsgYtBEIaUujk_14openrouter_api5utils5retry5testss_28test_concurrent_retry_limits0B9_
FNDA:1,_RNCNvNtNtNtCsgYtBEIaUujk_14openrouter_api5utils5retry5testss_28test_retry_config_new_fields0B9_
FNDA:1,_RNCNvNtNtNtCsgYtBEIaUujk_14openrouter_api5utils5retry5testss_29test_backoff_jitter_variation0B9_
FNDA:1,_RNCNvNtNtNtCsgYtBEIaUujk_14openrouter_api5utils5retry5testss_29test_individual_retry_capping0B9_
FNDA:1,_RNCNvNtNtNtCsgYtBEIaUujk_14openrouter_api5utils5retry5testss_29test_retry_performance_impact0B9_
FNDA:1,_RNCNvNtNtNtCsgYtBEIaUujk_14openrouter_api5utils5retry5testss_30test_retry_config_status_codes0B9_
FNDA:1,_RNCNvNtNtNtCsgYtBEIaUujk_14openrouter_api5utils5retry5testss_30test_total_timeout_enforcement0B9_
FNDA:1,_RNvNtNtNtCsgYtBEIaUujk_14openrouter_api5utils5retry5testss_25test_retry_config_default
FNDA:1,_RNvNtNtNtCsgYtBEIaUujk_14openrouter_api5utils5retry5testss_28test_concurrent_retry_limits
FNDA:1,_RNvNtNtNtCsgYtBEIaUujk_14openrouter_api5utils5retry5testss_28test_retry_config_new_fields
FNDA:1,_RNvNtNtNtCsgYtBEIaUujk_14openrouter_api5utils5retry5testss_29test_backoff_jitter_variation
FNDA:1,_RNvNtNtNtCsgYtBEIaUujk_14openrouter_api5utils5retry5testss_29test_individual_retry_capping
FNDA:1,_RNvNtNtNtCsgYtBEIaUujk_14openrouter_api5utils5retry5testss_29test_retry_performance_impact
FNDA:1,_RNvNtNtNtCsgYtBEIaUujk_14openrouter_api5utils5retry5testss_30test_retry_config_status_codes
FNDA:1,_RNvNtNtNtCsgYtBEIaUujk_14openrouter_api5utils5retry5testss_30test_total_timeout_enforcement
FNDA:1,_RNvNtNtNtCsgYtBEIaUujk_14openrouter_api5utils5retry5testss_36test_exponential_backoff_calculation
FNDA:1,_RNvNtNtNtCsgYtBEIaUujk_14openrouter_api5utils5retry5testss_36test_parse_retry_after_delta_seconds
FNDA:1,_RNvNtNtNtCsgYtBEIaUujk_14openrouter_api5utils5retry5testss_37test_parse_retry_after_http_date_past
FNDA:1,_RNvNtNtNtCsgYtBEIaUujk_14openrouter_api5utils5retry5testss_39test_parse_retry_after_http_date_future
FNDA:40,_RNvNtNtCsgYtBEIaUujk_14openrouter_api5utils5retry12next_backoff
FNDA:31,_RNvNtNtCsgYtBEIaUujk_14openrouter_api5utils5retry19jittered_backoff_ms
FNDA:13,_RNvNtNtCsgYtBEIaUujk_14openrouter_api5utils5retry20parse_retry_after_ms
FNDA:29,_RNvNtNtCsgYtBEIaUujk_14openrouter_api5utils5retry26is_retryable_reqwest_error
FNDA:0,_RNvNtNtCsgYtBEIaUujk_14openrouter_api5utils5retry5elide
FNDA:1,_RINvNtNtCsgYtBEIaUujk_14openrouter_api5utils5retry20handle_response_jsonNtNtNtB6_5types10generation18GenerationResponseEB6_
FNDA:1,_RINvNtNtCsgYtBEIaUujk_14openrouter_api5utils5retry20handle_response_jsonNtNtNtB6_5types9providers17ProvidersResponseEB6_
FNDA:5,_RINvNtNtCsgYtBEIaUujk_14openrouter_api5utils5retry26execute_with_retry_builderNCNCNCNCNvNtB2_5testss_28test_concurrent_retry_limits0000EB6_
FNDA:1,_RINvNtNtCsgYtBEIaUujk_14openrouter_api5utils5retry26execute_with_retry_builderNCNCNvMNtNtB6_3api10generationNtB1l_13GenerationApi14get_generation0s_0EB6_
FNDA:8,_RINvNtNtCsgYtBEIaUujk_14openrouter_api5utils5retry26execute_with_retry_builderNCNCNvMNtNtB6_3api9providersNtB1l_12ProvidersApi13get_providers00EB6_
FNDA:1,_RINvNtNtCsgYtBEIaUujk_14openrouter_api5utils5retry26execute_with_retry_builderNCNCNvNtB2_5testss_29test_backoff_jitter_variation00EB6_
FNDA:1,_RINvNtNtCsgYtBEIaUujk_14openrouter_api5utils5retry26execute_with_retry_builderNCNCNvNtB2_5testss_29test_individual_retry_capping00EB6_
FNDA:1,_RINvNtNtCsgYtBEIaUujk_14openrouter_api5utils5retry26execute_with_retry_builderNCNCNvNtB2_5testss_29test_retry_performance_impact00EB6_
FNDA:1,_RINvNtNtCsgYtBEIaUujk_14openrouter_api5utils5retry26execute_with_retry_builderNCNCNvNtB2_5testss_30test_total_timeout_enforcement00EB6_
FNDA:1,_RNCINvNtNtCsgYtBEIaUujk_14openrouter_api5utils5retry20handle_response_jsonNtNtNtB8_5types10generation18GenerationResponseE0B8_
FNDA:1,_RNCINvNtNtCsgYtBEIaUujk_14openrouter_api5utils5retry20handle_response_jsonNtNtNtB8_5types9providers17ProvidersResponseE0B8_
FNDA:5,_RNCINvNtNtCsgYtBEIaUujk_14openrouter_api5utils5retry26execute_with_retry_builderNCNCNCNCNvNtB4_5testss_28test_concurrent_retry_limits0000E0B8_
FNDA:1,_RNCINvNtNtCsgYtBEIaUujk_14openrouter_api5utils5retry26execute_with_retry_builderNCNCNvMNtNtB8_3api10generationNtB1n_13GenerationApi14get_generation0s_0E0B8_
FNDA:8,_RNCINvNtNtCsgYtBEIaUujk_14openrouter_api5utils5retry26execute_with_retry_builderNCNCNvMNtNtB8_3api9providersNtB1n_12ProvidersApi13get_providers00E0B8_
FNDA:1,_RNCINvNtNtCsgYtBEIaUujk_14openrouter_api5utils5retry26execute_with_retry_builderNCNCNvNtB4_5testss_29test_backoff_jitter_variation00E0B8_
FNDA:1,_RNCINvNtNtCsgYtBEIaUujk_14openrouter_api5utils5retry26execute_with_retry_builderNCNCNvNtB4_5testss_29test_individual_retry_capping00E0B8_
FNDA:1,_RNCINvNtNtCsgYtBEIaUujk_14openrouter_api5utils5retry26execute_with_retry_builderNCNCNvNtB4_5testss_29test_retry_performance_impact00E0B8_
FNDA:1,_RNCINvNtNtCsgYtBEIaUujk_14openrouter_api5utils5retry26execute_with_retry_builderNCNCNvNtB4_5testss_30test_total_timeout_enforcement00E0B8_
FNDA:0,_RNCNCINvNtNtCsgYtBEIaUujk_14openrouter_api5utils5retry20handle_response_jsonNtNtNtBa_5types10generation18GenerationResponseE00Ba_
FNDA:0,_RNCNCINvNtNtCsgYtBEIaUujk_14openrouter_api5utils5retry20handle_response_jsonNtNtNtBa_5types10generation18GenerationResponseE0s_0Ba_
FNDA:0,_RNCNCINvNtNtCsgYtBEIaUujk_14openrouter_api5utils5retry20handle_response_jsonNtNtNtBa_5types9providers17ProvidersResponseE00Ba_
FNDA:0,_RNCNCINvNtNtCsgYtBEIaUujk_14openrouter_api5utils5retry20handle_response_jsonNtNtNtBa_5types9providers17ProvidersResponseE0s_0Ba_
FNDA:0,_RNCNCNvNtNtCsgYtBEIaUujk_14openrouter_api5utils5retry20handle_response_text00B9_
FNDA:0,_RNCNvNtNtCsgYtBEIaUujk_14openrouter_api5utils5retry20handle_response_text0B7_
FNF:40
FNH:34
DA:30,18
DA:31,18
DA:32,18
DA:33,18
DA:34,18
DA:35,18
DA:36,18
DA:37,18
DA:38,18
DA:39,18
DA:40,18
DA:41,18
DA:45,49
DA:46,49
DA:47,0
DA:48,0
DA:49,0
DA:50,0
DA:51,0
DA:52,49
DA:55,49
DA:58,49
DA:61,0
DA:62,0
DA:63,0
DA:64,0
DA:70,0
DA:72,0
DA:73,0
DA:74,0
DA:75,0
DA:80,29
DA:82,29
DA:83,21
DA:85,21
DA:86,21
DA:87,21
DA:88,21
DA:91,21
DA:93,21
DA:94,21
DA:95,8
DA:98,8
DA:101,20
DA:102,20
DA:103,20
DA:106,20
DA:107,13
DA:109,10
DA:112,10
DA:115,10
DA:118,10
DA:119,10
DA:120,10
DA:122,10
DA:123,10
DA:127,10
DA:130,10
DA:131,7
DA:132,7
DA:133,10
DA:134,10
DA:137,10
DA:141,18
DA:145,13
DA:148,13
DA:149,6
DA:152,6
DA:153,4
DA:154,2
DA:157,2
DA:158,2
DA:159,2
DA:160,1
DA:161,1
DA:163,2
DA:164,0
DA:166,0
DA:167,13
DA:170,29
DA:171,29
DA:173,29
DA:177,31
DA:178,31
DA:179,31
DA:180,31
DA:181,31
DA:182,31
DA:184,31
DA:187,31
DA:190,31
DA:191,31
DA:194,31
DA:195,31
DA:196,31
DA:199,40
DA:200,40
DA:201,40
DA:202,40
DA:205,0
DA:206,0
DA:207,0
DA:208,0
DA:210,0
DA:213,0
DA:214,0
DA:215,0
DA:216,0
DA:217,0
DA:220,0
DA:222,0
DA:223,0
DA:224,0
DA:225,0
DA:227,0
DA:228,0
DA:229,0
DA:230,0
DA:231,0
DA:232,0
DA:233,0
DA:235,0
DA:236,0
DA:239,2
DA:240,2
DA:241,2
DA:242,2
DA:243,2
DA:244,2
DA:245,2
DA:247,2
DA:249,2
DA:250,2
DA:251,0
DA:252,0
DA:253,0
DA:256,0
DA:258,0
DA:259,0
DA:260,2
DA:261,0
DA:263,0
DA:264,0
DA:265,0
DA:266,0
DA:267,0
DA:268,0
DA:269,0
DA:272,0
DA:274,0
DA:275,0
DA:276,0
DA:277,0
DA:278,0
DA:279,0
DA:280,0
DA:281,0
DA:282,0
DA:284,0
DA:285,0
DA:286,2
DA:289,0
DA:290,0
DA:291,0
DA:293,0
DA:295,0
DA:304,1
DA:305,1
DA:306,1
DA:307,1
DA:308,1
DA:309,1
DA:310,1
DA:311,1
DA:314,1
DA:315,1
DA:316,1
DA:318,1
DA:320,1
DA:321,1
DA:323,1
DA:324,1
DA:326,11
DA:327,10
DA:328,10
DA:329,1
DA:330,1
DA:333,1
DA:334,1
DA:335,1
DA:336,1
DA:337,1
DA:340,1
DA:341,1
DA:342,1
DA:343,1
DA:344,1
DA:345,1
DA:346,1
DA:347,1
DA:350,1
DA:351,1
DA:352,1
DA:353,1
DA:354,1
DA:355,1
DA:356,1
DA:359,1
DA:360,1
DA:362,1
DA:363,1
DA:364,1
DA:365,1
DA:366,1
DA:368,1
DA:369,1
DA:371,1
DA:372,1
DA:373,1
DA:374,1
DA:377,1
DA:380,1
DA:383,1
DA:384,1
DA:387,1
DA:388,1
DA:389,1
DA:391,1
DA:392,1
DA:393,1
DA:396,1
DA:398,1
DA:399,1
DA:400,1
DA:401,1
DA:402,1
DA:403,1
DA:404,1
DA:405,1
DA:407,1
DA:408,1
DA:410,1
DA:411,1
DA:412,1
DA:415,1
DA:416,1
DA:417,1
DA:418,1
DA:419,1
DA:420,1
DA:421,1
DA:422,1
DA:423,1
DA:424,1
DA:425,1
DA:426,1
DA:427,1
DA:428,1
DA:429,1
DA:430,1
DA:431,1
DA:432,1
DA:435,1
DA:439,1
DA:442,1
DA:443,1
DA:444,1
DA:445,1
DA:447,1
DA:448,1
DA:449,1
DA:450,1
DA:451,1
DA:452,1
DA:453,1
DA:454,1
DA:456,1
DA:457,1
DA:458,1
DA:459,4
DA:460,1
DA:461,1
DA:464,1
DA:465,1
DA:466,1
DA:467,1
DA:468,1
DA:469,1
DA:470,1
DA:471,1
DA:472,1
DA:473,1
DA:474,1
DA:475,1
DA:476,1
DA:477,1
DA:478,0
DA:479,0
DA:480,0
DA:481,0
DA:482,0
DA:483,0
DA:484,1
DA:485,1
DA:486,1
DA:487,1
DA:488,1
DA:489,1
DA:490,1
DA:491,1
DA:492,1
DA:493,1
DA:494,1
DA:495,1
DA:496,1
DA:499,1
DA:504,1
DA:507,1
DA:508,1
DA:509,1
DA:510,1
DA:511,1
DA:513,1
DA:514,1
DA:515,1
DA:516,1
DA:518,1
DA:519,1
DA:520,1
DA:521,1
DA:522,1
DA:523,1
DA:524,1
DA:525,1
DA:527,1
DA:528,1
DA:531,1
DA:532,5
DA:533,5
DA:534,5
DA:535,5
DA:536,5
DA:537,6
DA:538,5
DA:539,5
DA:540,5
DA:541,1
DA:543,1
DA:546,1
DA:547,1
DA:549,6
DA:550,5
DA:551,5
DA:552,0
DA:553,0
DA:558,1
DA:559,1
DA:560,0
DA:563,1
DA:564,1
DA:567,1
DA:571,1
DA:574,1
DA:575,1
DA:576,1
DA:577,1
DA:579,1
DA:581,1
DA:582,1
DA:583,1
DA:584,1
DA:585,1
DA:586,1
DA:587,1
DA:590,1
DA:593,1
DA:594,1
DA:595,1
DA:596,1
DA:597,1
DA:598,1
DA:601,1
DA:604,1
DA:607,1
DA:608,1
DA:609,1
DA:610,1
DA:612,1
DA:613,1
DA:614,1
DA:615,1
DA:616,1
DA:617,1
DA:618,1
DA:619,1
DA:621,1
DA:622,1
DA:623,1
DA:624,4
DA:625,1
DA:626,1
DA:629,1
DA:630,1
DA:632,1
DA:633,1
DA:635,0
DA:636,0
DA:641,0
DA:642,0
DA:643,0
DA:644,0
DA:645,0
DA:646,0
DA:647,0
DA:648,0
DA:649,0
DA:656,1
DA:657,1
DA:658,0
DA:661,1
DA:662,1
DA:663,1
DA:664,1
DA:665,1
DA:666,1
BRF:0
BRH:0
LF:478
LH:371
end_of_record
SF:/Volumes/Everything/Development/openrouter_api/src/utils/security.rs
FN:62,_RNvNtNtCsgl6iEIT30H0_14openrouter_api5utils8security18redact_json_fields
FN:26,_RNvNtNtCsgl6iEIT30H0_14openrouter_api5utils8security24redact_sensitive_content
FN:98,_RNvNtNtCsgl6iEIT30H0_14openrouter_api5utils8security25create_safe_error_message
FN:119,_RNvNtNtCsgl6iEIT30H0_14openrouter_api5utils8security37create_safe_error_message_for_logging
FN:13,_RNCNvNtNtCsgl6iEIT30H0_14openrouter_api5utils8security11EMAIL_REGEX0B7_
FN:15,_RNCNvNtNtCsgl6iEIT30H0_14openrouter_api5utils8security11TOKEN_REGEX0B7_
FN:7,_RNCNvNtNtCsgl6iEIT30H0_14openrouter_api5utils8security13API_KEY_REGEX0B7_
FN:23,_RNCNvNtNtCsgl6iEIT30H0_14openrouter_api5utils8security17CREDIT_CARD_REGEX0B7_
FN:119,_RNvNtNtCsgYtBEIaUujk_14openrouter_api5utils8security37create_safe_error_message_for_logging
FN:200,_RNvNtNtNtCsgYtBEIaUujk_14openrouter_api5utils8security14security_testss_28test_long_content_truncation
FN:190,_RNvNtNtNtCsgYtBEIaUujk_14openrouter_api5utils8security14security_testss_31test_redact_credit_card_numbers
FN:149,_RNvNtNtNtCsgYtBEIaUujk_14openrouter_api5utils8security14security_testss_36test_create_safe_error_message_empty
FN:131,_RNvNtNtNtCsgYtBEIaUujk_14openrouter_api5utils8security14security_testss_43test_create_safe_error_message_with_api_key
FN:173,_RNvNtNtNtCsgYtBEIaUujk_14openrouter_api5utils8security14security_testss_43test_redact_json_fields_with_sensitive_keys
FN:141,_RNvNtNtNtCsgYtBEIaUujk_14openrouter_api5utils8security14security_testss_46test_create_safe_error_message_without_secrets
FN:155,_RNvNtNtNtCsgYtBEIaUujk_14openrouter_api5utils8security14security_testss_51test_redact_sensitive_content_with_multiple_secrets
FN:13,_RNCNvNtNtCsgYtBEIaUujk_14openrouter_api5utils8security11EMAIL_REGEX0B7_
FN:15,_RNCNvNtNtCsgYtBEIaUujk_14openrouter_api5utils8security11TOKEN_REGEX0B7_
FN:7,_RNCNvNtNtCsgYtBEIaUujk_14openrouter_api5utils8security13API_KEY_REGEX0B7_
FN:23,_RNCNvNtNtCsgYtBEIaUujk_14openrouter_api5utils8security17CREDIT_CARD_REGEX0B7_
FN:62,_RNvNtNtCsgYtBEIaUujk_14openrouter_api5utils8security18redact_json_fields
FN:26,_RNvNtNtCsgYtBEIaUujk_14openrouter_api5utils8security24redact_sensitive_content
FN:98,_RNvNtNtCsgYtBEIaUujk_14openrouter_api5utils8security25create_safe_error_message
FNDA:0,_RNvNtNtCsgl6iEIT30H0_14openrouter_api5utils8security18redact_json_fields
FNDA:0,_RNvNtNtCsgl6iEIT30H0_14openrouter_api5utils8security24redact_sensitive_content
FNDA:0,_RNvNtNtCsgl6iEIT30H0_14openrouter_api5utils8security25create_safe_error_message
FNDA:0,_RNvNtNtCsgl6iEIT30H0_14openrouter_api5utils8security37create_safe_error_message_for_logging
FNDA:0,_RNCNvNtNtCsgl6iEIT30H0_14openrouter_api5utils8security11EMAIL_REGEX0B7_
FNDA:0,_RNCNvNtNtCsgl6iEIT30H0_14openrouter_api5utils8security11TOKEN_REGEX0B7_
FNDA:0,_RNCNvNtNtCsgl6iEIT30H0_14openrouter_api5utils8security13API_KEY_REGEX0B7_
FNDA:0,_RNCNvNtNtCsgl6iEIT30H0_14openrouter_api5utils8security17CREDIT_CARD_REGEX0B7_
FNDA:0,_RNvNtNtCsgYtBEIaUujk_14openrouter_api5utils8security37create_safe_error_message_for_logging
FNDA:1,_RNvNtNtNtCsgYtBEIaUujk_14openrouter_api5utils8security14security_testss_28test_long_content_truncation
FNDA:1,_RNvNtNtNtCsgYtBEIaUujk_14openrouter_api5utils8security14security_testss_31test_redact_credit_card_numbers
FNDA:1,_RNvNtNtNtCsgYtBEIaUujk_14openrouter_api5utils8security14security_testss_36test_create_safe_error_message_empty
FNDA:1,_RNvNtNtNtCsgYtBEIaUujk_14openrouter_api5utils8security14security_testss_43test_create_safe_error_message_with_api_key
FNDA:1,_RNvNtNtNtCsgYtBEIaUujk_14openrouter_api5utils8security14security_testss_43test_redact_json_fields_with_sensitive_keys
FNDA:1,_RNvNtNtNtCsgYtBEIaUujk_14openrouter_api5utils8security14security_testss_46test_create_safe_error_message_without_secrets
FNDA:1,_RNvNtNtNtCsgYtBEIaUujk_14openrouter_api5utils8security14security_testss_51test_redact_sensitive_content_with_multiple_secrets
FNDA:1,_RNCNvNtNtCsgYtBEIaUujk_14openrouter_api5utils8security11EMAIL_REGEX0B7_
FNDA:1,_RNCNvNtNtCsgYtBEIaUujk_14openrouter_api5utils8security11TOKEN_REGEX0B7_
FNDA:1,_RNCNvNtNtCsgYtBEIaUujk_14openrouter_api5utils8security13API_KEY_REGEX0B7_
FNDA:1,_RNCNvNtNtCsgYtBEIaUujk_14openrouter_api5utils8security17CREDIT_CARD_REGEX0B7_
FNDA:1,_RNvNtNtCsgYtBEIaUujk_14openrouter_api5utils8security18redact_json_fields
FNDA:7,_RNvNtNtCsgYtBEIaUujk_14openrouter_api5utils8security24redact_sensitive_content
FNDA:5,_RNvNtNtCsgYtBEIaUujk_14openrouter_api5utils8security25create_safe_error_message
FNF:15
FNH:14
DA:7,1
DA:8,1
DA:9,1
DA:10,1
DA:13,1
DA:15,1
DA:16,1
DA:17,1
DA:19,1
DA:20,1
DA:23,1
DA:26,7
DA:27,7
DA:30,7
DA:31,7
DA:32,7
DA:35,7
DA:36,7
DA:37,7
DA:40,7
DA:41,7
DA:42,7
DA:45,7
DA:46,7
DA:47,7
DA:50,7
DA:51,2
DA:52,2
DA:53,2
DA:54,2
DA:57,5
DA:59,7
DA:62,1
DA:63,1
DA:66,1
DA:67,1
DA:68,1
DA:69,1
DA:70,1
DA:71,1
DA:72,1
DA:73,1
DA:74,1
DA:75,1
DA:76,1
DA:77,1
DA:78,1
DA:79,1
DA:80,1
DA:81,1
DA:82,1
DA:84,16
DA:86,15
DA:87,15
DA:88,15
DA:89,15
DA:90,15
DA:91,15
DA:94,1
DA:95,1
DA:98,5
DA:99,5
DA:100,1
DA:102,4
DA:104,4
DA:106,2
DA:107,2
DA:109,2
DA:113,2
DA:116,5
DA:119,0
DA:120,0
DA:121,0
DA:122,0
DA:123,0
DA:124,0
DA:131,1
DA:132,1
DA:133,1
DA:134,1
DA:136,1
DA:137,1
DA:138,1
DA:141,1
DA:142,1
DA:143,1
DA:145,1
DA:146,1
DA:149,1
DA:150,1
DA:151,1
DA:152,1
DA:155,1
DA:156,1
DA:157,1
DA:158,1
DA:159,1
DA:160,1
DA:162,1
DA:164,1
DA:165,1
DA:166,1
DA:167,1
DA:168,1
DA:169,1
DA:170,1
DA:173,1
DA:174,1
DA:175,1
DA:176,1
DA:177,1
DA:178,1
DA:179,1
DA:181,1
DA:183,1
DA:184,1
DA:185,1
DA:186,1
DA:187,1
DA:190,1
DA:191,1
DA:192,1
DA:194,1
DA:195,1
DA:196,1
DA:197,1
DA:200,1
DA:201,1
DA:202,1
DA:204,1
DA:205,1
DA:206,1
BRF:0
BRH:0
LF:132
LH:126
end_of_record
SF:/Volumes/Everything/Development/openrouter_api/src/utils/url_builder.rs
FN:23,_RNCNvMNtNtCsgl6iEIT30H0_14openrouter_api5utils11url_builderNtB4_10UrlBuilder5build0B8_
FN:23,_RNCNvMNtNtCsgYtBEIaUujk_14openrouter_api5utils11url_builderNtB4_10UrlBuilder5build0B8_
FN:29,_RNvMNtNtCsgYtBEIaUujk_14openrouter_api5utils11url_builderNtB2_10UrlBuilder16build_with_query
FN:67,_RNvNtNtNtCsgYtBEIaUujk_14openrouter_api5utils11url_builder5testss_29test_url_builder_invalid_path
FN:58,_RNvNtNtNtCsgYtBEIaUujk_14openrouter_api5utils11url_builder5testss_35test_url_builder_with_leading_slash
FN:39,_RNvNtNtNtCsgYtBEIaUujk_14openrouter_api5utils11url_builder5testss_36test_url_builder_with_trailing_slash
FN:48,_RNvNtNtNtCsgYtBEIaUujk_14openrouter_api5utils11url_builder5testss_39test_url_builder_without_trailing_slash
FN:11,_RNvMNtNtCsgYtBEIaUujk_14openrouter_api5utils11url_builderNtB2_10UrlBuilder3new
FN:17,_RNvMNtNtCsgYtBEIaUujk_14openrouter_api5utils11url_builderNtB2_10UrlBuilder5build
FNDA:0,_RNCNvMNtNtCsgl6iEIT30H0_14openrouter_api5utils11url_builderNtB4_10UrlBuilder5build0B8_
FNDA:0,_RNCNvMNtNtCsgYtBEIaUujk_14openrouter_api5utils11url_builderNtB4_10UrlBuilder5build0B8_
FNDA:0,_RNvMNtNtCsgYtBEIaUujk_14openrouter_api5utils11url_builderNtB2_10UrlBuilder16build_with_query
FNDA:1,_RNvNtNtNtCsgYtBEIaUujk_14openrouter_api5utils11url_builder5testss_29test_url_builder_invalid_path
FNDA:1,_RNvNtNtNtCsgYtBEIaUujk_14openrouter_api5utils11url_builder5testss_35test_url_builder_with_leading_slash
FNDA:1,_RNvNtNtNtCsgYtBEIaUujk_14openrouter_api5utils11url_builder5testss_36test_url_builder_with_trailing_slash
FNDA:1,_RNvNtNtNtCsgYtBEIaUujk_14openrouter_api5utils11url_builder5testss_39test_url_builder_without_trailing_slash
FNDA:4,_RNvMNtNtCsgYtBEIaUujk_14openrouter_api5utils11url_builderNtB2_10UrlBuilder3new
FNDA:4,_RNvMNtNtCsgYtBEIaUujk_14openrouter_api5utils11url_builderNtB2_10UrlBuilder5build
FNF:8
FNH:6
DA:11,4
DA:12,4
DA:13,4
DA:17,4
DA:19,4
DA:21,4
DA:23,0
DA:24,0
DA:25,0
DA:26,4
DA:29,0
DA:30,0
DA:31,0
DA:39,1
DA:40,1
DA:41,1
DA:43,1
DA:44,1
DA:45,1
DA:48,1
DA:49,1
DA:50,1
DA:52,1
DA:54,1
DA:55,1
DA:58,1
DA:59,1
DA:60,1
DA:62,1
DA:63,1
DA:64,1
DA:67,1
DA:68,1
DA:69,1
DA:72,1
DA:74,1
DA:75,1
BRF:0
BRH:0
LF:37
LH:31
end_of_record
SF:/Volumes/Everything/Development/openrouter_api/src/utils/validation/chat.rs
FN:400,_RNCNCNvNtNtNtCsgl6iEIT30H0_14openrouter_api5utils10validation4chat23estimate_request_tokens00Bb_
FN:403,_RNCNCNvNtNtNtCsgl6iEIT30H0_14openrouter_api5utils10validation4chat23estimate_request_tokens0s_0Bb_
FN:337,_RNCNvNtNtNtCsgl6iEIT30H0_14openrouter_api5utils10validation4chat23estimate_message_tokens0B9_
FN:359,_RNCNvNtNtNtCsgl6iEIT30H0_14openrouter_api5utils10validation4chat23estimate_message_tokenss_0B9_
FN:392,_RNCNvNtNtNtCsgl6iEIT30H0_14openrouter_api5utils10validation4chat23estimate_request_tokens0B9_
FN:288,_RNvNtNtNtCsgl6iEIT30H0_14openrouter_api5utils10validation4chat14validate_tools
FN:135,_RNvNtNtNtCsgl6iEIT30H0_14openrouter_api5utils10validation4chat16validate_message
FN:418,_RNvNtNtNtCsgl6iEIT30H0_14openrouter_api5utils10validation4chat18check_token_limits
FN:12,_RNvNtNtNtCsgl6iEIT30H0_14openrouter_api5utils10validation4chat21validate_chat_request
FN:235,_RNvNtNtNtCsgl6iEIT30H0_14openrouter_api5utils10validation4chat21validate_content_part
FN:327,_RNvNtNtNtCsgl6iEIT30H0_14openrouter_api5utils10validation4chat23estimate_message_tokens
FN:381,_RNvNtNtNtCsgl6iEIT30H0_14openrouter_api5utils10validation4chat23estimate_request_tokens
FN:197,_RNvNtNtNtCsgl6iEIT30H0_14openrouter_api5utils10validation4chat24validate_message_content
FN:40,_RNvNtNtNtCsgl6iEIT30H0_14openrouter_api5utils10validation4chat28validate_sampling_parameters
FN:288,_RNvNtNtNtCsgYtBEIaUujk_14openrouter_api5utils10validation4chat14validate_tools
FN:135,_RNvNtNtNtCsgYtBEIaUujk_14openrouter_api5utils10validation4chat16validate_message
FN:418,_RNvNtNtNtCsgYtBEIaUujk_14openrouter_api5utils10validation4chat18check_token_limits
FN:12,_RNvNtNtNtCsgYtBEIaUujk_14openrouter_api5utils10validation4chat21validate_chat_request
FN:235,_RNvNtNtNtCsgYtBEIaUujk_14openrouter_api5utils10validation4chat21validate_content_part
FN:327,_RNvNtNtNtCsgYtBEIaUujk_14openrouter_api5utils10validation4chat23estimate_message_tokens
FN:381,_RNvNtNtNtCsgYtBEIaUujk_14openrouter_api5utils10validation4chat23estimate_request_tokens
FN:197,_RNvNtNtNtCsgYtBEIaUujk_14openrouter_api5utils10validation4chat24validate_message_content
FN:40,_RNvNtNtNtCsgYtBEIaUujk_14openrouter_api5utils10validation4chat28validate_sampling_parameters
FN:437,_RNvNtNtNtNtCsgYtBEIaUujk_14openrouter_api5utils10validation4chat5tests25create_valid_chat_request
FN:472,_RNvNtNtNtNtCsgYtBEIaUujk_14openrouter_api5utils10validation4chat5testss_32test_validate_chat_request_valid
FN:479,_RNvNtNtNtNtCsgYtBEIaUujk_14openrouter_api5utils10validation4chat5testss_38test_validate_chat_request_empty_model
FN:495,_RNvNtNtNtNtCsgYtBEIaUujk_14openrouter_api5utils10validation4chat5testss_40test_check_token_limits_moderate_content
FN:487,_RNvNtNtNtNtCsgYtBEIaUujk_14openrouter_api5utils10validation4chat5testss_41test_validate_chat_request_empty_messages
FN:400,_RNCNCNvNtNtNtCsgYtBEIaUujk_14openrouter_api5utils10validation4chat23estimate_request_tokens00Bb_
FN:403,_RNCNCNvNtNtNtCsgYtBEIaUujk_14openrouter_api5utils10validation4chat23estimate_request_tokens0s_0Bb_
FN:337,_RNCNvNtNtNtCsgYtBEIaUujk_14openrouter_api5utils10validation4chat23estimate_message_tokens0B9_
FN:359,_RNCNvNtNtNtCsgYtBEIaUujk_14openrouter_api5utils10validation4chat23estimate_message_tokenss_0B9_
FN:392,_RNCNvNtNtNtCsgYtBEIaUujk_14openrouter_api5utils10validation4chat23estimate_request_tokens0B9_
FNDA:0,_RNCNCNvNtNtNtCsgl6iEIT30H0_14openrouter_api5utils10validation4chat23estimate_request_tokens00Bb_
FNDA:0,_RNCNCNvNtNtNtCsgl6iEIT30H0_14openrouter_api5utils10validation4chat23estimate_request_tokens0s_0Bb_
FNDA:0,_RNCNvNtNtNtCsgl6iEIT30H0_14openrouter_api5utils10validation4chat23estimate_message_tokens0B9_
FNDA:0,_RNCNvNtNtNtCsgl6iEIT30H0_14openrouter_api5utils10validation4chat23estimate_message_tokenss_0B9_
FNDA:0,_RNCNvNtNtNtCsgl6iEIT30H0_14openrouter_api5utils10validation4chat23estimate_request_tokens0B9_
FNDA:0,_RNvNtNtNtCsgl6iEIT30H0_14openrouter_api5utils10validation4chat14validate_tools
FNDA:0,_RNvNtNtNtCsgl6iEIT30H0_14openrouter_api5utils10validation4chat16validate_message
FNDA:0,_RNvNtNtNtCsgl6iEIT30H0_14openrouter_api5utils10validation4chat18check_token_limits
FNDA:0,_RNvNtNtNtCsgl6iEIT30H0_14openrouter_api5utils10validation4chat21validate_chat_request
FNDA:0,_RNvNtNtNtCsgl6iEIT30H0_14openrouter_api5utils10validation4chat21validate_content_part
FNDA:0,_RNvNtNtNtCsgl6iEIT30H0_14openrouter_api5utils10validation4chat23estimate_message_tokens
FNDA:0,_RNvNtNtNtCsgl6iEIT30H0_14openrouter_api5utils10validation4chat23estimate_request_tokens
FNDA:0,_RNvNtNtNtCsgl6iEIT30H0_14openrouter_api5utils10validation4chat24validate_message_content
FNDA:0,_RNvNtNtNtCsgl6iEIT30H0_14openrouter_api5utils10validation4chat28validate_sampling_parameters
FNDA:0,_RNvNtNtNtCsgYtBEIaUujk_14openrouter_api5utils10validation4chat14validate_tools
FNDA:1002,_RNvNtNtNtCsgYtBEIaUujk_14openrouter_api5utils10validation4chat16validate_message
FNDA:2,_RNvNtNtNtCsgYtBEIaUujk_14openrouter_api5utils10validation4chat18check_token_limits
FNDA:1004,_RNvNtNtNtCsgYtBEIaUujk_14openrouter_api5utils10validation4chat21validate_chat_request
FNDA:0,_RNvNtNtNtCsgYtBEIaUujk_14openrouter_api5utils10validation4chat21validate_content_part
FNDA:2,_RNvNtNtNtCsgYtBEIaUujk_14openrouter_api5utils10validation4chat23estimate_message_tokens
FNDA:2,_RNvNtNtNtCsgYtBEIaUujk_14openrouter_api5utils10validation4chat23estimate_request_tokens
FNDA:1002,_RNvNtNtNtCsgYtBEIaUujk_14openrouter_api5utils10validation4chat24validate_message_content
FNDA:1002,_RNvNtNtNtCsgYtBEIaUujk_14openrouter_api5utils10validation4chat28validate_sampling_parameters
FNDA:4,_RNvNtNtNtNtCsgYtBEIaUujk_14openrouter_api5utils10validation4chat5tests25create_valid_chat_request
FNDA:1,_RNvNtNtNtNtCsgYtBEIaUujk_14openrouter_api5utils10validation4chat5testss_32test_validate_chat_request_valid
FNDA:1,_RNvNtNtNtNtCsgYtBEIaUujk_14openrouter_api5utils10validation4chat5testss_38test_validate_chat_request_empty_model
FNDA:1,_RNvNtNtNtNtCsgYtBEIaUujk_14openrouter_api5utils10validation4chat5testss_40test_check_token_limits_moderate_content
FNDA:1,_RNvNtNtNtNtCsgYtBEIaUujk_14openrouter_api5utils10validation4chat5testss_41test_validate_chat_request_empty_messages
FNDA:0,_RNCNCNvNtNtNtCsgYtBEIaUujk_14openrouter_api5utils10validation4chat23estimate_request_tokens00Bb_
FNDA:0,_RNCNCNvNtNtNtCsgYtBEIaUujk_14openrouter_api5utils10validation4chat23estimate_request_tokens0s_0Bb_
FNDA:0,_RNCNvNtNtNtCsgYtBEIaUujk_14openrouter_api5utils10validation4chat23estimate_message_tokens0B9_
FNDA:0,_RNCNvNtNtNtCsgYtBEIaUujk_14openrouter_api5utils10validation4chat23estimate_message_tokenss_0B9_
FNDA:0,_RNCNvNtNtNtCsgYtBEIaUujk_14openrouter_api5utils10validation4chat23estimate_request_tokens0B9_
FNF:19
FNH:12
DA:12,1004
DA:14,1004
DA:15,1
DA:16,1003
DA:19,1003
DA:20,1
DA:21,1002
DA:24,1002
DA:27,1002
DA:28,1002
DA:32,1002
DA:33,0
DA:34,1002
DA:36,1002
DA:37,1004
DA:40,1002
DA:42,1002
DA:43,0
DA:44,0
DA:45,0
DA:46,0
DA:47,0
DA:48,0
DA:49,1002
DA:52,1002
DA:53,0
DA:54,0
DA:55,0
DA:56,0
DA:57,0
DA:58,0
DA:59,1002
DA:62,1002
DA:63,0
DA:64,0
DA:65,0
DA:66,0
DA:67,0
DA:68,0
DA:69,1002
DA:72,1002
DA:73,0
DA:74,0
DA:75,0
DA:76,0
DA:77,0
DA:78,0
DA:79,1002
DA:82,1002
DA:83,0
DA:84,0
DA:85,0
DA:86,0
DA:87,0
DA:88,0
DA:89,1002
DA:92,1002
DA:93,0
DA:94,0
DA:95,0
DA:96,0
DA:97,0
DA:98,0
DA:99,1002
DA:102,1002
DA:103,0
DA:104,0
DA:105,0
DA:106,0
DA:107,0
DA:108,0
DA:109,1002
DA:112,1002
DA:113,0
DA:114,0
DA:115,0
DA:116,0
DA:117,0
DA:118,0
DA:119,1002
DA:122,1002
DA:123,0
DA:124,0
DA:125,0
DA:126,0
DA:127,0
DA:128,0
DA:129,1002
DA:131,1002
DA:132,1002
DA:135,1002
DA:137,1002
DA:138,1002
DA:140,0
DA:141,0
DA:142,0
DA:143,0
DA:148,1002
DA:151,1002
DA:152,0
DA:153,0
DA:154,0
DA:155,0
DA:156,0
DA:157,0
DA:160,0
DA:161,0
DA:162,0
DA:163,0
DA:164,0
DA:165,0
DA:167,0
DA:168,0
DA:169,0
DA:170,0
DA:171,0
DA:172,0
DA:174,0
DA:175,0
DA:176,0
DA:177,0
DA:178,0
DA:180,1002
DA:183,1002
DA:184,0
DA:185,0
DA:187,0
DA:188,0
DA:189,0
DA:190,0
DA:191,1002
DA:193,1002
DA:194,1002
DA:197,1002
DA:198,1002
DA:199,1002
DA:201,1002
DA:202,0
DA:203,0
DA:204,0
DA:205,0
DA:206,1002
DA:208,0
DA:210,0
DA:211,0
DA:212,0
DA:213,0
DA:214,0
DA:215,0
DA:218,0
DA:219,0
DA:220,0
DA:221,0
DA:222,0
DA:223,0
DA:225,0
DA:226,0
DA:231,1002
DA:232,1002
DA:235,0
DA:236,0
DA:237,0
DA:238,0
DA:239,0
DA:240,0
DA:241,0
DA:242,0
DA:243,0
DA:245,0
DA:247,0
DA:248,0
DA:249,0
DA:250,0
DA:251,0
DA:252,0
DA:255,0
DA:256,0
DA:257,0
DA:258,0
DA:260,0
DA:261,0
DA:262,0
DA:263,0
DA:264,0
DA:266,0
DA:267,0
DA:268,0
DA:269,0
DA:270,0
DA:271,0
DA:272,0
DA:274,0
DA:275,0
DA:276,0
DA:277,0
DA:278,0
DA:279,0
DA:280,0
DA:284,0
DA:285,0
DA:288,0
DA:289,0
DA:290,0
DA:291,0
DA:294,0
DA:296,0
DA:297,0
DA:298,0
DA:299,0
DA:300,0
DA:301,0
DA:302,0
DA:303,0
DA:305,0
DA:306,0
DA:307,0
DA:308,0
DA:309,0
DA:310,0
DA:313,0
DA:314,0
DA:315,0
DA:316,0
DA:317,0
DA:318,0
DA:323,0
DA:324,0
DA:327,2
DA:328,2
DA:329,2
DA:331,2
DA:333,0
DA:335,0
DA:336,0
DA:337,0
DA:338,0
DA:339,0
DA:342,0
DA:344,0
DA:345,0
DA:347,0
DA:348,0
DA:353,2
DA:356,2
DA:357,0
DA:358,0
DA:359,0
DA:361,0
DA:362,0
DA:363,0
DA:364,0
DA:365,0
DA:367,2
DA:371,2
DA:372,0
DA:374,2
DA:377,2
DA:378,2
DA:381,2
DA:383,2
DA:386,2
DA:389,2
DA:390,0
DA:391,0
DA:392,0
DA:393,0
DA:394,0
DA:396,0
DA:397,0
DA:398,0
DA:399,0
DA:400,0
DA:401,0
DA:402,0
DA:403,0
DA:404,0
DA:405,0
DA:408,0
DA:409,0
DA:411,2
DA:414,2
DA:415,2
DA:418,2
DA:419,2
DA:421,2
DA:422,0
DA:423,0
DA:424,0
DA:425,0
DA:426,0
DA:427,0
DA:428,2
DA:430,2
DA:431,2
DA:437,4
DA:438,4
DA:439,4
DA:440,4
DA:441,4
DA:442,4
DA:443,4
DA:444,4
DA:445,4
DA:446,4
DA:447,4
DA:448,4
DA:449,4
DA:450,4
DA:451,4
DA:452,4
DA:453,4
DA:454,4
DA:455,4
DA:456,4
DA:457,4
DA:458,4
DA:459,4
DA:460,4
DA:461,4
DA:462,4
DA:463,4
DA:464,4
DA:465,4
DA:466,4
DA:467,4
DA:468,4
DA:469,4
DA:472,1
DA:473,1
DA:474,1
DA:475,1
DA:476,1
DA:479,1
DA:480,1
DA:481,1
DA:482,1
DA:483,1
DA:484,1
DA:487,1
DA:488,1
DA:489,1
DA:490,1
DA:491,1
DA:492,1
DA:495,1
DA:496,1
DA:498,1
DA:499,1
DA:500,1
DA:501,1
DA:502,1
BRF:0
BRH:0
LF:356
LH:133
end_of_record
SF:/Volumes/Everything/Development/openrouter_api/src/utils/validation/common.rs
FN:45,_RINvNtNtNtCsgl6iEIT30H0_14openrouter_api5utils10validation6common22validate_numeric_rangedEB8_
FN:45,_RINvNtNtNtCsgl6iEIT30H0_14openrouter_api5utils10validation6common22validate_numeric_rangemEB8_
FN:45,_RINvNtNtNtCsgl6iEIT30H0_14openrouter_api5utils10validation6common22validate_numeric_rangexEB8_
FN:45,_RINvNtNtNtCsgl6iEIT30H0_14openrouter_api5utils10validation6common22validate_numeric_rangeyEB8_
FN:183,_RINvNtNtNtCsgl6iEIT30H0_14openrouter_api5utils10validation6common24validate_collection_sizeNtNtCsdLjdxSeljAF_10serde_json5value5ValueEB8_
FN:89,_RNCNvNtNtNtCsgl6iEIT30H0_14openrouter_api5utils10validation6common12validate_url0B9_
FN:140,_RNCNvNtNtNtCsgl6iEIT30H0_14openrouter_api5utils10validation6common19validate_date_range0B9_
FN:143,_RNCNvNtNtNtCsgl6iEIT30H0_14openrouter_api5utils10validation6common19validate_date_ranges_0B9_
FN:96,_RNCNvNtNtNtCsgl6iEIT30H0_14openrouter_api5utils10validation6common19validate_url_scheme0B9_
FN:127,_RNCNvNtNtNtCsgl6iEIT30H0_14openrouter_api5utils10validation6common20validate_date_format0B9_
FN:384,_RNCNvNtNtNtCsgl6iEIT30H0_14openrouter_api5utils10validation6common22validate_regex_pattern0B9_
FN:13,_RNCNvNtNtNtCsgl6iEIT30H0_14openrouter_api5utils10validation6common24validate_required_string0B9_
FN:87,_RNvNtNtNtCsgYtBEIaUujk_14openrouter_api5utils10validation6common12validate_url
FN:368,_RNvNtNtNtCsgYtBEIaUujk_14openrouter_api5utils10validation6common17validate_model_id
FN:110,_RNvNtNtNtCsgYtBEIaUujk_14openrouter_api5utils10validation6common20validate_date_format
FN:28,_RNvNtNtNtCsgYtBEIaUujk_14openrouter_api5utils10validation6common22validate_string_length
FN:17,_RNvNtNtNtCsgYtBEIaUujk_14openrouter_api5utils10validation6common25validate_non_empty_string
FN:322,_RNvNtNtNtCsgYtBEIaUujk_14openrouter_api5utils10validation6common28validate_sampling_parameters
FN:262,_RNvNtNtNtCsgYtBEIaUujk_14openrouter_api5utils10validation6common31validate_optional_numeric_param
FN:444,_RNvNtNtNtNtCsgYtBEIaUujk_14openrouter_api5utils10validation6common5testss_17test_validate_url
FN:481,_RNvNtNtNtNtCsgYtBEIaUujk_14openrouter_api5utils10validation6common5testss_22test_validate_model_id
FN:459,_RNvNtNtNtNtCsgYtBEIaUujk_14openrouter_api5utils10validation6common5testss_24test_validate_enum_value
FN:451,_RNvNtNtNtNtCsgYtBEIaUujk_14openrouter_api5utils10validation6common5testss_25test_validate_date_format
FN:435,_RNvNtNtNtNtCsgYtBEIaUujk_14openrouter_api5utils10validation6common5testss_27test_validate_numeric_range
FN:427,_RNvNtNtNtNtCsgYtBEIaUujk_14openrouter_api5utils10validation6common5testss_27test_validate_string_length
FN:419,_RNvNtNtNtNtCsgYtBEIaUujk_14openrouter_api5utils10validation6common5testss_30test_validate_non_empty_string
FN:466,_RNvNtNtNtNtCsgYtBEIaUujk_14openrouter_api5utils10validation6common5testss_33test_validate_sampling_parameters
FN:155,_RINvNtNtNtCsgYtBEIaUujk_14openrouter_api5utils10validation6common19validate_enum_valueReEB8_
FN:45,_RINvNtNtNtCsgYtBEIaUujk_14openrouter_api5utils10validation6common22validate_numeric_rangedEB8_
FN:45,_RINvNtNtNtCsgYtBEIaUujk_14openrouter_api5utils10validation6common22validate_numeric_rangelEB8_
FN:45,_RINvNtNtNtCsgYtBEIaUujk_14openrouter_api5utils10validation6common22validate_numeric_rangemEB8_
FN:45,_RINvNtNtNtCsgYtBEIaUujk_14openrouter_api5utils10validation6common22validate_numeric_rangexEB8_
FN:45,_RINvNtNtNtCsgYtBEIaUujk_14openrouter_api5utils10validation6common22validate_numeric_rangeyEB8_
FN:183,_RINvNtNtNtCsgYtBEIaUujk_14openrouter_api5utils10validation6common24validate_collection_sizeNtNtCsdLjdxSeljAF_10serde_json5value5ValueEB8_
FN:89,_RNCNvNtNtNtCsgYtBEIaUujk_14openrouter_api5utils10validation6common12validate_url0B9_
FN:127,_RNCNvNtNtNtCsgYtBEIaUujk_14openrouter_api5utils10validation6common20validate_date_format0B9_
FN:73,_RINvNtNtNtCsgYtBEIaUujk_14openrouter_api5utils10validation6common20validate_numeric_maxpEB8_
FN:59,_RINvNtNtNtCsgYtBEIaUujk_14openrouter_api5utils10validation6common20validate_numeric_minpEB8_
FN:205,_RINvNtNtNtCsgYtBEIaUujk_14openrouter_api5utils10validation6common21validate_unique_itemspEB8_
FN:172,_RINvNtNtNtCsgYtBEIaUujk_14openrouter_api5utils10validation6common29validate_non_empty_collectionpEB8_
FN:140,_RNCNvNtNtNtCsgYtBEIaUujk_14openrouter_api5utils10validation6common19validate_date_range0B9_
FN:143,_RNCNvNtNtNtCsgYtBEIaUujk_14openrouter_api5utils10validation6common19validate_date_ranges_0B9_
FN:96,_RNCNvNtNtNtCsgYtBEIaUujk_14openrouter_api5utils10validation6common19validate_url_scheme0B9_
FN:384,_RNCNvNtNtNtCsgYtBEIaUujk_14openrouter_api5utils10validation6common22validate_regex_pattern0B9_
FN:13,_RNCNvNtNtNtCsgYtBEIaUujk_14openrouter_api5utils10validation6common24validate_required_string0B9_
FN:235,_RNvNtNtNtCsgYtBEIaUujk_14openrouter_api5utils10validation6common18validate_json_type
FN:138,_RNvNtNtNtCsgYtBEIaUujk_14openrouter_api5utils10validation6common19validate_date_range
FN:94,_RNvNtNtNtCsgYtBEIaUujk_14openrouter_api5utils10validation6common19validate_url_scheme
FN:224,_RNvNtNtNtCsgYtBEIaUujk_14openrouter_api5utils10validation6common20validate_json_object
FN:383,_RNvNtNtNtCsgYtBEIaUujk_14openrouter_api5utils10validation6common22validate_regex_pattern
FN:7,_RNvNtNtNtCsgYtBEIaUujk_14openrouter_api5utils10validation6common24validate_required_string
FN:402,_RNvNtNtNtCsgYtBEIaUujk_14openrouter_api5utils10validation6common26validate_non_empty_strings
FN:302,_RNvNtNtNtCsgYtBEIaUujk_14openrouter_api5utils10validation6common30validate_optional_string_param
FN:282,_RNvNtNtNtCsgYtBEIaUujk_14openrouter_api5utils10validation6common31validate_optional_integer_param
FNDA:0,_RINvNtNtNtCsgl6iEIT30H0_14openrouter_api5utils10validation6common22validate_numeric_rangedEB8_
FNDA:0,_RINvNtNtNtCsgl6iEIT30H0_14openrouter_api5utils10validation6common22validate_numeric_rangemEB8_
FNDA:0,_RINvNtNtNtCsgl6iEIT30H0_14openrouter_api5utils10validation6common22validate_numeric_rangexEB8_
FNDA:0,_RINvNtNtNtCsgl6iEIT30H0_14openrouter_api5utils10validation6common22validate_numeric_rangeyEB8_
FNDA:0,_RINvNtNtNtCsgl6iEIT30H0_14openrouter_api5utils10validation6common24validate_collection_sizeNtNtCsdLjdxSeljAF_10serde_json5value5ValueEB8_
FNDA:0,_RNCNvNtNtNtCsgl6iEIT30H0_14openrouter_api5utils10validation6common12validate_url0B9_
FNDA:0,_RNCNvNtNtNtCsgl6iEIT30H0_14openrouter_api5utils10validation6common19validate_date_range0B9_
FNDA:0,_RNCNvNtNtNtCsgl6iEIT30H0_14openrouter_api5utils10validation6common19validate_date_ranges_0B9_
FNDA:0,_RNCNvNtNtNtCsgl6iEIT30H0_14openrouter_api5utils10validation6common19validate_url_scheme0B9_
FNDA:0,_RNCNvNtNtNtCsgl6iEIT30H0_14openrouter_api5utils10validation6common20validate_date_format0B9_
FNDA:0,_RNCNvNtNtNtCsgl6iEIT30H0_14openrouter_api5utils10validation6common22validate_regex_pattern0B9_
FNDA:0,_RNCNvNtNtNtCsgl6iEIT30H0_14openrouter_api5utils10validation6common24validate_required_string0B9_
FNDA:3,_RNvNtNtNtCsgYtBEIaUujk_14openrouter_api5utils10validation6common12validate_url
FNDA:79,_RNvNtNtNtCsgYtBEIaUujk_14openrouter_api5utils10validation6common17validate_model_id
FNDA:6,_RNvNtNtNtCsgYtBEIaUujk_14openrouter_api5utils10validation6common20validate_date_format
FNDA:228,_RNvNtNtNtCsgYtBEIaUujk_14openrouter_api5utils10validation6common22validate_string_length
FNDA:231,_RNvNtNtNtCsgYtBEIaUujk_14openrouter_api5utils10validation6common25validate_non_empty_string
FNDA:8,_RNvNtNtNtCsgYtBEIaUujk_14openrouter_api5utils10validation6common28validate_sampling_parameters
FNDA:167,_RNvNtNtNtCsgYtBEIaUujk_14openrouter_api5utils10validation6common31validate_optional_numeric_param
FNDA:1,_RNvNtNtNtNtCsgYtBEIaUujk_14openrouter_api5utils10validation6common5testss_17test_validate_url
FNDA:1,_RNvNtNtNtNtCsgYtBEIaUujk_14openrouter_api5utils10validation6common5testss_22test_validate_model_id
FNDA:1,_RNvNtNtNtNtCsgYtBEIaUujk_14openrouter_api5utils10validation6common5testss_24test_validate_enum_value
FNDA:1,_RNvNtNtNtNtCsgYtBEIaUujk_14openrouter_api5utils10validation6common5testss_25test_validate_date_format
FNDA:1,_RNvNtNtNtNtCsgYtBEIaUujk_14openrouter_api5utils10validation6common5testss_27test_validate_numeric_range
FNDA:1,_RNvNtNtNtNtCsgYtBEIaUujk_14openrouter_api5utils10validation6common5testss_27test_validate_string_length
FNDA:1,_RNvNtNtNtNtCsgYtBEIaUujk_14openrouter_api5utils10validation6common5testss_30test_validate_non_empty_string
FNDA:1,_RNvNtNtNtNtCsgYtBEIaUujk_14openrouter_api5utils10validation6common5testss_33test_validate_sampling_parameters
FNDA:2,_RINvNtNtNtCsgYtBEIaUujk_14openrouter_api5utils10validation6common19validate_enum_valueReEB8_
FNDA:36,_RINvNtNtNtCsgYtBEIaUujk_14openrouter_api5utils10validation6common22validate_numeric_rangedEB8_
FNDA:7,_RINvNtNtNtCsgYtBEIaUujk_14openrouter_api5utils10validation6common22validate_numeric_rangelEB8_
FNDA:31,_RINvNtNtNtCsgYtBEIaUujk_14openrouter_api5utils10validation6common22validate_numeric_rangemEB8_
FNDA:2,_RINvNtNtNtCsgYtBEIaUujk_14openrouter_api5utils10validation6common22validate_numeric_rangexEB8_
FNDA:11,_RINvNtNtNtCsgYtBEIaUujk_14openrouter_api5utils10validation6common22validate_numeric_rangeyEB8_
FNDA:5,_RINvNtNtNtCsgYtBEIaUujk_14openrouter_api5utils10validation6common24validate_collection_sizeNtNtCsdLjdxSeljAF_10serde_json5value5ValueEB8_
FNDA:1,_RNCNvNtNtNtCsgYtBEIaUujk_14openrouter_api5utils10validation6common12validate_url0B9_
FNDA:3,_RNCNvNtNtNtCsgYtBEIaUujk_14openrouter_api5utils10validation6common20validate_date_format0B9_
FNDA:0,_RINvNtNtNtCsgYtBEIaUujk_14openrouter_api5utils10validation6common20validate_numeric_maxpEB8_
FNDA:0,_RINvNtNtNtCsgYtBEIaUujk_14openrouter_api5utils10validation6common20validate_numeric_minpEB8_
FNDA:0,_RINvNtNtNtCsgYtBEIaUujk_14openrouter_api5utils10validation6common21validate_unique_itemspEB8_
FNDA:0,_RINvNtNtNtCsgYtBEIaUujk_14openrouter_api5utils10validation6common29validate_non_empty_collectionpEB8_
FNDA:0,_RNCNvNtNtNtCsgYtBEIaUujk_14openrouter_api5utils10validation6common19validate_date_range0B9_
FNDA:0,_RNCNvNtNtNtCsgYtBEIaUujk_14openrouter_api5utils10validation6common19validate_date_ranges_0B9_
FNDA:0,_RNCNvNtNtNtCsgYtBEIaUujk_14openrouter_api5utils10validation6common19validate_url_scheme0B9_
FNDA:0,_RNCNvNtNtNtCsgYtBEIaUujk_14openrouter_api5utils10validation6common22validate_regex_pattern0B9_
FNDA:0,_RNCNvNtNtNtCsgYtBEIaUujk_14openrouter_api5utils10validation6common24validate_required_string0B9_
FNDA:0,_RNvNtNtNtCsgYtBEIaUujk_14openrouter_api5utils10validation6common18validate_json_type
FNDA:0,_RNvNtNtNtCsgYtBEIaUujk_14openrouter_api5utils10validation6common19validate_date_range
FNDA:0,_RNvNtNtNtCsgYtBEIaUujk_14openrouter_api5utils10validation6common19validate_url_scheme
FNDA:0,_RNvNtNtNtCsgYtBEIaUujk_14openrouter_api5utils10validation6common20validate_json_object
FNDA:0,_RNvNtNtNtCsgYtBEIaUujk_14openrouter_api5utils10validation6common22validate_regex_pattern
FNDA:0,_RNvNtNtNtCsgYtBEIaUujk_14openrouter_api5utils10validation6common24validate_required_string
FNDA:0,_RNvNtNtNtCsgYtBEIaUujk_14openrouter_api5utils10validation6common26validate_non_empty_strings
FNDA:0,_RNvNtNtNtCsgYtBEIaUujk_14openrouter_api5utils10validation6common30validate_optional_string_param
FNDA:0,_RNvNtNtNtCsgYtBEIaUujk_14openrouter_api5utils10validation6common31validate_optional_integer_param
FNF:38
FNH:20
DA:7,0
DA:8,0
DA:9,0
DA:10,0
DA:11,0
DA:12,0
DA:13,0
DA:14,0
DA:17,231
DA:18,231
DA:19,19
DA:20,19
DA:21,19
DA:22,19
DA:23,212
DA:24,212
DA:25,231
DA:28,228
DA:29,228
DA:30,3
DA:31,3
DA:32,3
DA:33,3
DA:34,225
DA:35,225
DA:36,5
DA:37,5
DA:38,5
DA:39,5
DA:40,220
DA:41,220
DA:42,228
DA:45,87
DA:46,87
DA:47,87
DA:49,87
DA:50,17
DA:51,17
DA:52,17
DA:53,17
DA:54,70
DA:55,70
DA:56,87
DA:59,0
DA:60,0
DA:61,0
DA:63,0
DA:64,0
DA:65,0
DA:66,0
DA:67,0
DA:68,0
DA:69,0
DA:70,0
DA:73,0
DA:74,0
DA:75,0
DA:77,0
DA:78,0
DA:79,0
DA:80,0
DA:81,0
DA:82,0
DA:83,0
DA:84,0
DA:87,3
DA:88,3
DA:89,3
DA:90,2
DA:91,3
DA:94,0
DA:95,0
DA:96,0
DA:98,0
DA:99,0
DA:100,0
DA:101,0
DA:102,0
DA:103,0
DA:104,0
DA:106,0
DA:107,0
DA:110,6
DA:111,6
DA:112,1
DA:113,1
DA:114,1
DA:115,1
DA:116,5
DA:119,5
DA:120,0
DA:121,0
DA:122,0
DA:123,0
DA:124,5
DA:127,5
DA:128,3
DA:129,3
DA:130,3
DA:131,3
DA:132,3
DA:134,2
DA:135,6
DA:138,0
DA:139,0
DA:140,0
DA:142,0
DA:143,0
DA:145,0
DA:146,0
DA:147,0
DA:148,0
DA:149,0
DA:151,0
DA:152,0
DA:155,2
DA:156,2
DA:157,2
DA:158,2
DA:159,2
DA:160,2
DA:161,2
DA:162,1
DA:163,1
DA:164,1
DA:165,1
DA:166,1
DA:167,1
DA:168,1
DA:169,2
DA:172,0
DA:173,0
DA:174,0
DA:175,0
DA:176,0
DA:177,0
DA:178,0
DA:179,0
DA:180,0
DA:183,5
DA:184,5
DA:185,5
DA:186,5
DA:187,5
DA:188,5
DA:189,5
DA:190,0
DA:191,0
DA:192,0
DA:193,0
DA:194,5
DA:195,5
DA:196,2
DA:197,2
DA:198,2
DA:199,2
DA:200,3
DA:201,3
DA:202,5
DA:205,0
DA:206,0
DA:207,0
DA:208,0
DA:209,0
DA:211,0
DA:212,0
DA:213,0
DA:214,0
DA:215,0
DA:216,0
DA:217,0
DA:220,0
DA:221,0
DA:224,0
DA:225,0
DA:226,0
DA:227,0
DA:228,0
DA:229,0
DA:230,0
DA:231,0
DA:232,0
DA:235,0
DA:236,0
DA:237,0
DA:238,0
DA:239,0
DA:240,0
DA:241,0
DA:242,0
DA:243,0
DA:244,0
DA:245,0
DA:246,0
DA:247,0
DA:248,0
DA:251,0
DA:252,0
DA:253,0
DA:254,0
DA:255,0
DA:256,0
DA:258,0
DA:259,0
DA:262,167
DA:263,167
DA:264,167
DA:265,167
DA:266,167
DA:267,167
DA:268,167
DA:269,28
DA:270,28
DA:272,0
DA:273,0
DA:274,0
DA:275,0
DA:277,139
DA:278,163
DA:279,167
DA:282,0
DA:283,0
DA:284,0
DA:285,0
DA:286,0
DA:287,0
DA:288,0
DA:289,0
DA:290,0
DA:292,0
DA:293,0
DA:294,0
DA:295,0
DA:297,0
DA:298,0
DA:299,0
DA:302,0
DA:303,0
DA:304,0
DA:305,0
DA:306,0
DA:307,0
DA:308,0
DA:309,0
DA:310,0
DA:312,0
DA:313,0
DA:314,0
DA:315,0
DA:317,0
DA:318,0
DA:319,0
DA:322,8
DA:323,8
DA:324,8
DA:325,8
DA:326,8
DA:327,8
DA:328,8
DA:330,8
DA:331,4
DA:332,4
DA:335,6
DA:336,4
DA:337,2
DA:338,2
DA:339,2
DA:340,2
DA:341,2
DA:342,2
DA:345,4
DA:346,4
DA:347,0
DA:348,0
DA:349,0
DA:350,0
DA:351,4
DA:352,0
DA:355,4
DA:356,2
DA:357,2
DA:360,4
DA:361,2
DA:362,2
DA:364,4
DA:365,8
DA:368,79
DA:369,79
DA:370,75
DA:373,75
DA:374,4
DA:375,4
DA:376,4
DA:377,71
DA:379,71
DA:380,79
DA:383,0
DA:384,0
DA:385,0
DA:386,0
DA:387,0
DA:388,0
DA:389,0
DA:391,0
DA:392,0
DA:393,0
DA:394,0
DA:395,0
DA:396,0
DA:398,0
DA:399,0
DA:402,0
DA:403,0
DA:404,0
DA:405,0
DA:406,0
DA:407,0
DA:408,0
DA:409,0
DA:411,0
DA:412,0
DA:419,1
DA:420,1
DA:421,1
DA:422,1
DA:423,1
DA:424,1
DA:427,1
DA:428,1
DA:429,1
DA:430,1
DA:431,1
DA:432,1
DA:435,1
DA:436,1
DA:437,1
DA:438,1
DA:439,1
DA:440,1
DA:441,1
DA:444,1
DA:445,1
DA:446,1
DA:447,1
DA:448,1
DA:451,1
DA:452,1
DA:453,1
DA:454,1
DA:455,1
DA:456,1
DA:459,1
DA:460,1
DA:461,1
DA:462,1
DA:463,1
DA:466,1
DA:468,1
DA:469,1
DA:470,1
DA:474,1
DA:477,1
DA:478,1
DA:481,1
DA:482,1
DA:483,1
DA:484,1
DA:485,1
DA:486,1
BRF:0
BRH:0
LF:378
LH:190
end_of_record
SF:/Volumes/Everything/Development/openrouter_api/src/utils/validation/completion.rs
FN:157,_RNvNtNtNtCsgYtBEIaUujk_14openrouter_api5utils10validation10completion19validate_logit_bias
FN:28,_RNvNtNtNtCsgYtBEIaUujk_14openrouter_api5utils10validation10completion21validate_extra_params
FN:196,_RNvNtNtNtCsgYtBEIaUujk_14openrouter_api5utils10validation10completion22estimate_prompt_tokens
FN:126,_RNvNtNtNtCsgYtBEIaUujk_14openrouter_api5utils10validation10completion22validate_stop_sequence
FN:203,_RNvNtNtNtCsgYtBEIaUujk_14openrouter_api5utils10validation10completion25check_prompt_token_limits
FN:11,_RNvNtNtNtCsgYtBEIaUujk_14openrouter_api5utils10validation10completion27validate_completion_request
FN:227,_RNvNtNtNtNtCsgYtBEIaUujk_14openrouter_api5utils10validation10completion5tests31create_valid_completion_request
FN:341,_RNvNtNtNtNtCsgYtBEIaUujk_14openrouter_api5utils10validation10completion5testss_27test_estimate_prompt_tokens
FN:349,_RNvNtNtNtNtCsgYtBEIaUujk_14openrouter_api5utils10validation10completion5testss_30test_check_prompt_token_limits
FN:318,_RNvNtNtNtNtCsgYtBEIaUujk_14openrouter_api5utils10validation10completion5testss_30test_validate_logit_bias_valid
FN:304,_RNvNtNtNtNtCsgYtBEIaUujk_14openrouter_api5utils10validation10completion5testss_33test_validate_stop_sequence_array
FN:297,_RNvNtNtNtNtCsgYtBEIaUujk_14openrouter_api5utils10validation10completion5testss_34test_validate_stop_sequence_string
FN:311,_RNvNtNtNtNtCsgYtBEIaUujk_14openrouter_api5utils10validation10completion5testss_36test_validate_stop_sequence_too_many
FN:236,_RNvNtNtNtNtCsgYtBEIaUujk_14openrouter_api5utils10validation10completion5testss_38test_validate_completion_request_valid
FN:330,_RNvNtNtNtNtCsgYtBEIaUujk_14openrouter_api5utils10validation10completion5testss_38test_validate_logit_bias_invalid_range
FN:242,_RNvNtNtNtNtCsgYtBEIaUujk_14openrouter_api5utils10validation10completion5testss_44test_validate_completion_request_empty_model
FN:249,_RNvNtNtNtNtCsgYtBEIaUujk_14openrouter_api5utils10validation10completion5testss_45test_validate_completion_request_empty_prompt
FN:283,_RNvNtNtNtNtCsgYtBEIaUujk_14openrouter_api5utils10validation10completion5testss_46test_validate_completion_request_invalid_top_p
FN:256,_RNvNtNtNtNtCsgYtBEIaUujk_14openrouter_api5utils10validation10completion5testss_50test_validate_completion_request_whitespace_prompt
FN:290,_RNvNtNtNtNtCsgYtBEIaUujk_14openrouter_api5utils10validation10completion5testss_51test_validate_completion_request_invalid_max_tokens
FN:263,_RNvNtNtNtNtCsgYtBEIaUujk_14openrouter_api5utils10validation10completion5testss_51test_validate_completion_request_valid_extra_params
FN:276,_RNvNtNtNtNtCsgYtBEIaUujk_14openrouter_api5utils10validation10completion5testss_52test_validate_completion_request_invalid_temperature
FNDA:10,_RNvNtNtNtCsgYtBEIaUujk_14openrouter_api5utils10validation10completion19validate_logit_bias
FNDA:62,_RNvNtNtNtCsgYtBEIaUujk_14openrouter_api5utils10validation10completion21validate_extra_params
FNDA:11,_RNvNtNtNtCsgYtBEIaUujk_14openrouter_api5utils10validation10completion22estimate_prompt_tokens
FNDA:8,_RNvNtNtNtCsgYtBEIaUujk_14openrouter_api5utils10validation10completion22validate_stop_sequence
FNDA:6,_RNvNtNtNtCsgYtBEIaUujk_14openrouter_api5utils10validation10completion25check_prompt_token_limits
FNDA:71,_RNvNtNtNtCsgYtBEIaUujk_14openrouter_api5utils10validation10completion27validate_completion_request
FNDA:13,_RNvNtNtNtNtCsgYtBEIaUujk_14openrouter_api5utils10validation10completion5tests31create_valid_completion_request
FNDA:1,_RNvNtNtNtNtCsgYtBEIaUujk_14openrouter_api5utils10validation10completion5testss_27test_estimate_prompt_tokens
FNDA:1,_RNvNtNtNtNtCsgYtBEIaUujk_14openrouter_api5utils10validation10completion5testss_30test_check_prompt_token_limits
FNDA:1,_RNvNtNtNtNtCsgYtBEIaUujk_14openrouter_api5utils10validation10completion5testss_30test_validate_logit_bias_valid
FNDA:1,_RNvNtNtNtNtCsgYtBEIaUujk_14openrouter_api5utils10validation10completion5testss_33test_validate_stop_sequence_array
FNDA:1,_RNvNtNtNtNtCsgYtBEIaUujk_14openrouter_api5utils10validation10completion5testss_34test_validate_stop_sequence_string
FNDA:1,_RNvNtNtNtNtCsgYtBEIaUujk_14openrouter_api5utils10validation10completion5testss_36test_validate_stop_sequence_too_many
FNDA:1,_RNvNtNtNtNtCsgYtBEIaUujk_14openrouter_api5utils10validation10completion5testss_38test_validate_completion_request_valid
FNDA:1,_RNvNtNtNtNtCsgYtBEIaUujk_14openrouter_api5utils10validation10completion5testss_38test_validate_logit_bias_invalid_range
FNDA:1,_RNvNtNtNtNtCsgYtBEIaUujk_14openrouter_api5utils10validation10completion5testss_44test_validate_completion_request_empty_model
FNDA:1,_RNvNtNtNtNtCsgYtBEIaUujk_14openrouter_api5utils10validation10completion5testss_45test_validate_completion_request_empty_prompt
FNDA:1,_RNvNtNtNtNtCsgYtBEIaUujk_14openrouter_api5utils10validation10completion5testss_46test_validate_completion_request_invalid_top_p
FNDA:1,_RNvNtNtNtNtCsgYtBEIaUujk_14openrouter_api5utils10validation10completion5testss_50test_validate_completion_request_whitespace_prompt
FNDA:1,_RNvNtNtNtNtCsgYtBEIaUujk_14openrouter_api5utils10validation10completion5testss_51test_validate_completion_request_invalid_max_tokens
FNDA:1,_RNvNtNtNtNtCsgYtBEIaUujk_14openrouter_api5utils10validation10completion5testss_51test_validate_completion_request_valid_extra_params
FNDA:1,_RNvNtNtNtNtCsgYtBEIaUujk_14openrouter_api5utils10validation10completion5testss_52test_validate_completion_request_invalid_temperature
FNF:22
FNH:22
DA:11,71
DA:13,71
DA:16,67
DA:17,63
DA:20,62
DA:21,62
DA:22,0
DA:24,40
DA:25,71
DA:28,62
DA:30,62
DA:33,59
DA:34,9
DA:35,9
DA:36,3
DA:37,3
DA:38,3
DA:39,3
DA:40,6
DA:42,0
DA:43,0
DA:44,0
DA:46,50
DA:49,56
DA:50,9
DA:51,9
DA:52,3
DA:53,3
DA:54,3
DA:55,3
DA:56,6
DA:58,0
DA:59,0
DA:60,0
DA:62,47
DA:65,53
DA:68,52
DA:71,52
DA:72,8
DA:73,44
DA:76,49
DA:77,10
DA:78,39
DA:81,45
DA:82,4
DA:83,1
DA:84,1
DA:85,1
DA:86,3
DA:87,41
DA:90,44
DA:91,5
DA:92,2
DA:93,3
DA:94,1
DA:95,1
DA:96,1
DA:97,2
DA:98,39
DA:101,43
DA:102,6
DA:103,6
DA:105,0
DA:106,0
DA:107,0
DA:109,37
DA:112,41
DA:113,5
DA:114,5
DA:116,0
DA:117,0
DA:118,0
DA:120,36
DA:122,40
DA:123,62
DA:126,8
DA:127,8
DA:128,3
DA:130,3
DA:132,5
DA:134,5
DA:136,7
DA:137,7
DA:138,7
DA:140,0
DA:141,0
DA:142,0
DA:143,0
DA:148,0
DA:149,0
DA:150,0
DA:153,5
DA:154,8
DA:157,10
DA:158,10
DA:160,20
DA:162,14
DA:163,1
DA:164,1
DA:165,1
DA:166,1
DA:167,13
DA:170,13
DA:171,0
DA:172,0
DA:173,0
DA:174,0
DA:175,13
DA:178,13
DA:179,13
DA:180,3
DA:181,3
DA:182,3
DA:183,3
DA:184,10
DA:185,0
DA:188,0
DA:189,0
DA:190,0
DA:192,6
DA:193,10
DA:196,11
DA:199,11
DA:200,11
DA:203,6
DA:204,6
DA:209,6
DA:210,2
DA:211,2
DA:212,2
DA:213,2
DA:214,2
DA:215,2
DA:216,2
DA:217,4
DA:219,4
DA:220,6
DA:227,13
DA:228,13
DA:229,13
DA:230,13
DA:231,13
DA:232,13
DA:233,13
DA:236,1
DA:237,1
DA:238,1
DA:239,1
DA:242,1
DA:243,1
DA:244,1
DA:245,1
DA:246,1
DA:249,1
DA:250,1
DA:251,1
DA:252,1
DA:253,1
DA:256,1
DA:257,1
DA:258,1
DA:259,1
DA:260,1
DA:263,1
DA:264,1
DA:265,1
DA:266,1
DA:267,1
DA:268,1
DA:269,1
DA:270,1
DA:272,1
DA:273,1
DA:276,1
DA:277,1
DA:278,1
DA:279,1
DA:280,1
DA:283,1
DA:284,1
DA:285,1
DA:286,1
DA:287,1
DA:290,1
DA:291,1
DA:292,1
DA:293,1
DA:294,1
DA:297,1
DA:298,1
DA:299,1
DA:300,1
DA:301,1
DA:304,1
DA:305,1
DA:306,1
DA:307,1
DA:308,1
DA:311,1
DA:312,1
DA:313,1
DA:314,1
DA:315,1
DA:318,1
DA:319,1
DA:320,1
DA:321,1
DA:322,1
DA:323,1
DA:326,1
DA:327,1
DA:330,1
DA:331,1
DA:332,1
DA:333,1
DA:334,1
DA:337,1
DA:338,1
DA:341,1
DA:342,1
DA:343,1
DA:344,1
DA:345,1
DA:346,1
DA:349,1
DA:350,1
DA:351,1
DA:353,1
DA:354,1
DA:355,1
BRF:0
BRH:0
LF:230
LH:202
end_of_record
SF:/Volumes/Everything/Development/openrouter_api/src/utils/validation/completion_tests.rs
FN:10,_RNvNtNtNtNtCsgYtBEIaUujk_14openrouter_api5utils10validation16completion_tests5tests31create_valid_completion_request
FN:324,_RNvNtNtNtNtCsgYtBEIaUujk_14openrouter_api5utils10validation16completion_tests5testss_27test_estimate_prompt_tokens
FN:250,_RNvNtNtNtNtCsgYtBEIaUujk_14openrouter_api5utils10validation16completion_tests5testss_28test_validate_echo_parameter
FN:352,_RNvNtNtNtNtCsgYtBEIaUujk_14openrouter_api5utils10validation16completion_tests5testss_30test_check_prompt_token_limits
FN:199,_RNvNtNtNtNtCsgYtBEIaUujk_14openrouter_api5utils10validation16completion_tests5testss_30test_validate_logit_bias_valid
FN:263,_RNvNtNtNtNtCsgYtBEIaUujk_14openrouter_api5utils10validation16completion_tests5testss_30test_validate_suffix_parameter
FN:279,_RNvNtNtNtNtCsgYtBEIaUujk_14openrouter_api5utils10validation16completion_tests5testss_31test_validate_best_of_parameter
FN:302,_RNvNtNtNtNtCsgYtBEIaUujk_14openrouter_api5utils10validation16completion_tests5testss_32test_validate_logprobs_parameter
FN:178,_RNvNtNtNtNtCsgYtBEIaUujk_14openrouter_api5utils10validation16completion_tests5testss_33test_validate_stop_sequence_array
FN:192,_RNvNtNtNtNtCsgYtBEIaUujk_14openrouter_api5utils10validation16completion_tests5testss_33test_validate_stop_sequence_empty
FN:171,_RNvNtNtNtNtCsgYtBEIaUujk_14openrouter_api5utils10validation16completion_tests5testss_34test_validate_stop_sequence_string
FN:185,_RNvNtNtNtNtCsgYtBEIaUujk_14openrouter_api5utils10validation16completion_tests5testss_36test_validate_stop_sequence_too_many
FN:19,_RNvNtNtNtNtCsgYtBEIaUujk_14openrouter_api5utils10validation16completion_tests5testss_38test_validate_completion_request_valid
FN:212,_RNvNtNtNtNtCsgYtBEIaUujk_14openrouter_api5utils10validation16completion_tests5testss_38test_validate_logit_bias_invalid_range
FN:239,_RNvNtNtNtNtCsgYtBEIaUujk_14openrouter_api5utils10validation16completion_tests5testss_38test_validate_logit_bias_invalid_token
FN:25,_RNvNtNtNtNtCsgYtBEIaUujk_14openrouter_api5utils10validation16completion_tests5testss_44test_validate_completion_request_empty_model
FN:39,_RNvNtNtNtNtCsgYtBEIaUujk_14openrouter_api5utils10validation16completion_tests5testss_45test_validate_completion_request_empty_prompt
FN:96,_RNvNtNtNtNtCsgYtBEIaUujk_14openrouter_api5utils10validation16completion_tests5testss_45test_validate_completion_request_top_p_bounds
FN:364,_RNvNtNtNtNtCsgYtBEIaUujk_14openrouter_api5utils10validation16completion_tests5testss_47test_validate_completion_request_complex_params
FN:144,_RNvNtNtNtNtCsgYtBEIaUujk_14openrouter_api5utils10validation16completion_tests5testss_47test_validate_completion_request_penalty_bounds
FN:53,_RNvNtNtNtNtCsgYtBEIaUujk_14openrouter_api5utils10validation16completion_tests5testss_48test_validate_completion_request_prompt_too_long
FN:118,_RNvNtNtNtNtCsgYtBEIaUujk_14openrouter_api5utils10validation16completion_tests5testss_50test_validate_completion_request_max_tokens_bounds
FN:46,_RNvNtNtNtNtCsgYtBEIaUujk_14openrouter_api5utils10validation16completion_tests5testss_50test_validate_completion_request_whitespace_prompt
FN:73,_RNvNtNtNtNtCsgYtBEIaUujk_14openrouter_api5utils10validation16completion_tests5testss_51test_validate_completion_request_temperature_bounds
FN:60,_RNvNtNtNtNtCsgYtBEIaUujk_14openrouter_api5utils10validation16completion_tests5testss_51test_validate_completion_request_valid_extra_params
FN:387,_RNvNtNtNtNtCsgYtBEIaUujk_14openrouter_api5utils10validation16completion_tests5testss_52test_validate_completion_request_mixed_valid_invalid
FN:32,_RNvNtNtNtNtCsgYtBEIaUujk_14openrouter_api5utils10validation16completion_tests5testss_53test_validate_completion_request_invalid_model_format
FNDA:50,_RNvNtNtNtNtCsgYtBEIaUujk_14openrouter_api5utils10validation16completion_tests5tests31create_valid_completion_request
FNDA:1,_RNvNtNtNtNtCsgYtBEIaUujk_14openrouter_api5utils10validation16completion_tests5testss_27test_estimate_prompt_tokens
FNDA:1,_RNvNtNtNtNtCsgYtBEIaUujk_14openrouter_api5utils10validation16completion_tests5testss_28test_validate_echo_parameter
FNDA:1,_RNvNtNtNtNtCsgYtBEIaUujk_14openrouter_api5utils10validation16completion_tests5testss_30test_check_prompt_token_limits
FNDA:1,_RNvNtNtNtNtCsgYtBEIaUujk_14openrouter_api5utils10validation16completion_tests5testss_30test_validate_logit_bias_valid
FNDA:1,_RNvNtNtNtNtCsgYtBEIaUujk_14openrouter_api5utils10validation16completion_tests5testss_30test_validate_suffix_parameter
FNDA:1,_RNvNtNtNtNtCsgYtBEIaUujk_14openrouter_api5utils10validation16completion_tests5testss_31test_validate_best_of_parameter
FNDA:1,_RNvNtNtNtNtCsgYtBEIaUujk_14openrouter_api5utils10validation16completion_tests5testss_32test_validate_logprobs_parameter
FNDA:1,_RNvNtNtNtNtCsgYtBEIaUujk_14openrouter_api5utils10validation16completion_tests5testss_33test_validate_stop_sequence_array
FNDA:1,_RNvNtNtNtNtCsgYtBEIaUujk_14openrouter_api5utils10validation16completion_tests5testss_33test_validate_stop_sequence_empty
FNDA:1,_RNvNtNtNtNtCsgYtBEIaUujk_14openrouter_api5utils10validation16completion_tests5testss_34test_validate_stop_sequence_string
FNDA:1,_RNvNtNtNtNtCsgYtBEIaUujk_14openrouter_api5utils10validation16completion_tests5testss_36test_validate_stop_sequence_too_many
FNDA:1,_RNvNtNtNtNtCsgYtBEIaUujk_14openrouter_api5utils10validation16completion_tests5testss_38test_validate_completion_request_valid
FNDA:1,_RNvNtNtNtNtCsgYtBEIaUujk_14openrouter_api5utils10validation16completion_tests5testss_38test_validate_logit_bias_invalid_range
FNDA:1,_RNvNtNtNtNtCsgYtBEIaUujk_14openrouter_api5utils10validation16completion_tests5testss_38test_validate_logit_bias_invalid_token
FNDA:1,_RNvNtNtNtNtCsgYtBEIaUujk_14openrouter_api5utils10validation16completion_tests5testss_44test_validate_completion_request_empty_model
FNDA:1,_RNvNtNtNtNtCsgYtBEIaUujk_14openrouter_api5utils10validation16completion_tests5testss_45test_validate_completion_request_empty_prompt
FNDA:1,_RNvNtNtNtNtCsgYtBEIaUujk_14openrouter_api5utils10validation16completion_tests5testss_45test_validate_completion_request_top_p_bounds
FNDA:1,_RNvNtNtNtNtCsgYtBEIaUujk_14openrouter_api5utils10validation16completion_tests5testss_47test_validate_completion_request_complex_params
FNDA:1,_RNvNtNtNtNtCsgYtBEIaUujk_14openrouter_api5utils10validation16completion_tests5testss_47test_validate_completion_request_penalty_bounds
FNDA:1,_RNvNtNtNtNtCsgYtBEIaUujk_14openrouter_api5utils10validation16completion_tests5testss_48test_validate_completion_request_prompt_too_long
FNDA:1,_RNvNtNtNtNtCsgYtBEIaUujk_14openrouter_api5utils10validation16completion_tests5testss_50test_validate_completion_request_max_tokens_bounds
FNDA:1,_RNvNtNtNtNtCsgYtBEIaUujk_14openrouter_api5utils10validation16completion_tests5testss_50test_validate_completion_request_whitespace_prompt
FNDA:1,_RNvNtNtNtNtCsgYtBEIaUujk_14openrouter_api5utils10validation16completion_tests5testss_51test_validate_completion_request_temperature_bounds
FNDA:1,_RNvNtNtNtNtCsgYtBEIaUujk_14openrouter_api5utils10validation16completion_tests5testss_51test_validate_completion_request_valid_extra_params
FNDA:1,_RNvNtNtNtNtCsgYtBEIaUujk_14openrouter_api5utils10validation16completion_tests5testss_52test_validate_completion_request_mixed_valid_invalid
FNDA:1,_RNvNtNtNtNtCsgYtBEIaUujk_14openrouter_api5utils10validation16completion_tests5testss_53test_validate_completion_request_invalid_model_format
FNF:27
FNH:27
DA:10,50
DA:11,50
DA:12,50
DA:13,50
DA:14,50
DA:15,50
DA:16,50
DA:19,1
DA:20,1
DA:21,1
DA:22,1
DA:25,1
DA:26,1
DA:27,1
DA:28,1
DA:29,1
DA:32,1
DA:33,1
DA:34,1
DA:35,1
DA:36,1
DA:39,1
DA:40,1
DA:41,1
DA:42,1
DA:43,1
DA:46,1
DA:47,1
DA:48,1
DA:49,1
DA:50,1
DA:53,1
DA:54,1
DA:55,1
DA:56,1
DA:57,1
DA:60,1
DA:61,1
DA:62,1
DA:63,1
DA:64,1
DA:65,1
DA:66,1
DA:67,1
DA:69,1
DA:70,1
DA:73,1
DA:74,1
DA:75,1
DA:76,1
DA:77,1
DA:78,1
DA:79,1
DA:80,1
DA:82,6
DA:83,5
DA:84,5
DA:86,5
DA:87,5
DA:88,3
DA:90,2
DA:93,1
DA:96,1
DA:97,1
DA:98,1
DA:99,1
DA:100,1
DA:101,1
DA:102,1
DA:104,5
DA:105,4
DA:106,4
DA:108,4
DA:109,4
DA:110,2
DA:112,2
DA:115,1
DA:118,1
DA:119,1
DA:120,1
DA:121,1
DA:122,1
DA:123,1
DA:124,1
DA:126,5
DA:127,4
DA:128,4
DA:130,4
DA:131,4
DA:132,3
DA:134,1
DA:135,1
DA:136,0
DA:141,1
DA:144,1
DA:145,1
DA:146,1
DA:147,1
DA:148,1
DA:149,1
DA:150,1
DA:151,1
DA:152,1
DA:154,7
DA:155,6
DA:156,6
DA:157,6
DA:158,6
DA:161,6
DA:162,6
DA:163,5
DA:165,1
DA:168,1
DA:171,1
DA:172,1
DA:173,1
DA:174,1
DA:175,1
DA:178,1
DA:179,1
DA:180,1
DA:181,1
DA:182,1
DA:185,1
DA:186,1
DA:187,1
DA:188,1
DA:189,1
DA:192,1
DA:193,1
DA:194,1
DA:195,1
DA:196,1
DA:199,1
DA:200,1
DA:201,1
DA:202,1
DA:203,1
DA:204,1
DA:205,1
DA:208,1
DA:209,1
DA:212,1
DA:213,1
DA:214,1
DA:215,1
DA:216,1
DA:217,1
DA:218,1
DA:219,1
DA:221,6
DA:222,5
DA:223,5
DA:224,5
DA:225,5
DA:229,5
DA:230,5
DA:231,3
DA:233,2
DA:236,1
DA:239,1
DA:240,1
DA:241,1
DA:242,1
DA:243,1
DA:246,1
DA:247,1
DA:250,1
DA:251,1
DA:252,1
DA:253,1
DA:255,1
DA:256,1
DA:258,1
DA:259,1
DA:260,1
DA:263,1
DA:264,1
DA:265,1
DA:266,1
DA:268,1
DA:269,1
DA:271,1
DA:272,1
DA:274,1
DA:275,1
DA:276,1
DA:279,1
DA:280,1
DA:281,1
DA:282,1
DA:283,1
DA:284,1
DA:285,1
DA:286,1
DA:288,6
DA:289,5
DA:290,5
DA:292,5
DA:293,5
DA:294,3
DA:296,2
DA:299,1
DA:302,1
DA:303,1
DA:304,1
DA:305,1
DA:306,1
DA:307,1
DA:308,1
DA:310,5
DA:311,4
DA:312,4
DA:314,4
DA:315,4
DA:316,3
DA:318,1
DA:321,1
DA:324,1
DA:325,1
DA:326,1
DA:327,1
DA:328,1
DA:329,1
DA:330,1
DA:332,5
DA:333,4
DA:334,4
DA:335,3
DA:336,3
DA:337,0
DA:339,1
DA:340,4
DA:341,4
DA:342,0
DA:346,4
DA:347,4
DA:349,1
DA:352,1
DA:353,1
DA:354,1
DA:356,1
DA:357,1
DA:359,1
DA:360,1
DA:361,1
DA:364,1
DA:365,1
DA:366,1
DA:367,1
DA:368,1
DA:369,1
DA:370,1
DA:371,1
DA:372,1
DA:373,1
DA:374,1
DA:375,1
DA:377,1
DA:378,1
DA:379,1
DA:380,1
DA:383,1
DA:384,1
DA:387,1
DA:388,1
DA:389,1
DA:390,1
DA:391,1
DA:392,1
DA:393,1
DA:396,1
DA:397,1
BRF:0
BRH:0
LF:273
LH:270
end_of_record
SF:/Volumes/Everything/Development/openrouter_api/src/utils/validation/tests.rs
FN:168,_RNvNtNtNtNtCsgYtBEIaUujk_14openrouter_api5utils10validation5tests16validation_testss_26test_validation_edge_cases
FN:186,_RNvNtNtNtNtCsgYtBEIaUujk_14openrouter_api5utils10validation5tests16validation_testss_27test_validation_consistency
FN:124,_RNvNtNtNtNtCsgYtBEIaUujk_14openrouter_api5utils10validation5tests16validation_testss_27test_validation_performance
FN:110,_RNvNtNtNtNtCsgYtBEIaUujk_14openrouter_api5utils10validation5tests16validation_testss_30test_validation_error_messages
FN:16,_RNvNtNtNtNtCsgYtBEIaUujk_14openrouter_api5utils10validation5tests16validation_testss_30test_validation_module_exports
FN:49,_RNvNtNtNtNtCsgYtBEIaUujk_14openrouter_api5utils10validation5tests16validation_testss_32test_chat_validation_integration
FN:25,_RNvNtNtNtNtCsgYtBEIaUujk_14openrouter_api5utils10validation5tests16validation_testss_32test_common_validation_utilities
FN:211,_RNvNtNtNtNtCsgYtBEIaUujk_14openrouter_api5utils10validation5tests16validation_testss_35test_sampling_parameters_validation
FN:87,_RNvNtNtNtNtCsgYtBEIaUujk_14openrouter_api5utils10validation5tests16validation_testss_38test_completion_validation_integration
FN:99,_RNvNtNtNtNtCsgYtBEIaUujk_14openrouter_api5utils10validation5tests16validation_testss_38test_web_search_validation_integration
FNDA:1,_RNvNtNtNtNtCsgYtBEIaUujk_14openrouter_api5utils10validation5tests16validation_testss_26test_validation_edge_cases
FNDA:1,_RNvNtNtNtNtCsgYtBEIaUujk_14openrouter_api5utils10validation5tests16validation_testss_27test_validation_consistency
FNDA:1,_RNvNtNtNtNtCsgYtBEIaUujk_14openrouter_api5utils10validation5tests16validation_testss_27test_validation_performance
FNDA:1,_RNvNtNtNtNtCsgYtBEIaUujk_14openrouter_api5utils10validation5tests16validation_testss_30test_validation_error_messages
FNDA:1,_RNvNtNtNtNtCsgYtBEIaUujk_14openrouter_api5utils10validation5tests16validation_testss_30test_validation_module_exports
FNDA:1,_RNvNtNtNtNtCsgYtBEIaUujk_14openrouter_api5utils10validation5tests16validation_testss_32test_chat_validation_integration
FNDA:1,_RNvNtNtNtNtCsgYtBEIaUujk_14openrouter_api5utils10validation5tests16validation_testss_32test_common_validation_utilities
FNDA:1,_RNvNtNtNtNtCsgYtBEIaUujk_14openrouter_api5utils10validation5tests16validation_testss_35test_sampling_parameters_validation
FNDA:1,_RNvNtNtNtNtCsgYtBEIaUujk_14openrouter_api5utils10validation5tests16validation_testss_38test_completion_validation_integration
FNDA:1,_RNvNtNtNtNtCsgYtBEIaUujk_14openrouter_api5utils10validation5tests16validation_testss_38test_web_search_validation_integration
FNF:10
FNH:10
DA:16,1
DA:18,1
DA:19,1
DA:20,1
DA:21,1
DA:22,1
DA:25,1
DA:27,1
DA:28,1
DA:29,1
DA:32,1
DA:33,1
DA:36,1
DA:37,1
DA:40,1
DA:41,1
DA:44,1
DA:45,1
DA:46,1
DA:49,1
DA:50,1
DA:51,1
DA:52,1
DA:53,1
DA:54,1
DA:55,1
DA:56,1
DA:57,1
DA:58,1
DA:59,1
DA:60,1
DA:61,1
DA:62,1
DA:63,1
DA:64,1
DA:65,1
DA:66,1
DA:67,1
DA:68,1
DA:69,1
DA:70,1
DA:71,1
DA:72,1
DA:73,1
DA:74,1
DA:75,1
DA:76,1
DA:77,1
DA:78,1
DA:79,1
DA:80,1
DA:82,1
DA:83,1
DA:84,1
DA:87,1
DA:88,1
DA:89,1
DA:90,1
DA:91,1
DA:92,1
DA:94,1
DA:95,1
DA:96,1
DA:99,1
DA:100,1
DA:101,1
DA:102,1
DA:103,1
DA:105,1
DA:106,1
DA:107,1
DA:110,1
DA:112,1
DA:113,1
DA:114,1
DA:115,1
DA:117,1
DA:118,1
DA:119,1
DA:120,1
DA:121,1
DA:124,1
DA:126,1
DA:128,1001
DA:129,1000
DA:130,1000
DA:131,1000
DA:132,1000
DA:133,1000
DA:134,1000
DA:135,1000
DA:136,1000
DA:137,1000
DA:138,1000
DA:139,1000
DA:140,1000
DA:141,1000
DA:142,1000
DA:143,1000
DA:144,1000
DA:145,1000
DA:146,1000
DA:147,1000
DA:148,1000
DA:149,1000
DA:150,1000
DA:151,1000
DA:152,1000
DA:153,1000
DA:154,1000
DA:155,1000
DA:156,1000
DA:157,1000
DA:158,1000
DA:159,1000
DA:160,1000
DA:161,1000
DA:163,1
DA:164,1
DA:165,1
DA:168,1
DA:172,1
DA:173,1
DA:174,1
DA:177,1
DA:178,1
DA:181,1
DA:182,1
DA:183,1
DA:186,1
DA:189,1
DA:192,1
DA:195,1
DA:196,1
DA:197,1
DA:198,1
DA:199,1
DA:200,1
DA:202,1
DA:203,1
DA:204,1
DA:205,1
DA:206,1
DA:207,1
DA:208,1
DA:211,1
DA:214,1
DA:215,1
DA:216,1
DA:217,1
DA:218,1
DA:219,1
DA:220,1
DA:221,1
DA:222,1
DA:225,1
DA:228,1
DA:231,1
DA:232,1
DA:234,1
BRF:0
BRH:0
LF:160
LH:160
end_of_record
SF:/Volumes/Everything/Development/openrouter_api/src/utils/validation/web_search.rs
FN:48,_RNCNvNtNtNtCsgl6iEIT30H0_14openrouter_api5utils10validation10web_search22validate_query_content0B9_
FN:166,_RNCNvNtNtNtCsgl6iEIT30H0_14openrouter_api5utils10validation10web_search38validate_and_suggest_query_improvement0B9_
FN:62,_RNvNtNtNtCsgYtBEIaUujk_14openrouter_api5utils10validation10web_search21validate_query_safety
FN:37,_RNvNtNtNtCsgYtBEIaUujk_14openrouter_api5utils10validation10web_search22validate_query_content
FN:113,_RNvNtNtNtCsgYtBEIaUujk_14openrouter_api5utils10validation10web_search24has_excessive_repetition
FN:137,_RNvNtNtNtCsgYtBEIaUujk_14openrouter_api5utils10validation10web_search24looks_like_url_injection
FN:183,_RNvNtNtNtCsgYtBEIaUujk_14openrouter_api5utils10validation10web_search25estimate_query_complexity
FN:20,_RNvNtNtNtCsgYtBEIaUujk_14openrouter_api5utils10validation10web_search27validate_web_search_request
FN:215,_RNvNtNtNtCsgYtBEIaUujk_14openrouter_api5utils10validation10web_search31validate_results_for_complexity
FN:147,_RNvNtNtNtCsgYtBEIaUujk_14openrouter_api5utils10validation10web_search38validate_and_suggest_query_improvement
FN:48,_RNCNvNtNtNtCsgYtBEIaUujk_14openrouter_api5utils10validation10web_search22validate_query_content0B9_
FN:166,_RNCNvNtNtNtCsgYtBEIaUujk_14openrouter_api5utils10validation10web_search38validate_and_suggest_query_improvement0B9_
FN:242,_RNvNtNtNtNtCsgYtBEIaUujk_14openrouter_api5utils10validation10web_search5tests31create_valid_web_search_request
FN:319,_RNvNtNtNtNtCsgYtBEIaUujk_14openrouter_api5utils10validation10web_search5testss_29test_has_excessive_repetition
FN:326,_RNvNtNtNtNtCsgYtBEIaUujk_14openrouter_api5utils10validation10web_search5testss_29test_looks_like_url_injection
FN:334,_RNvNtNtNtNtCsgYtBEIaUujk_14openrouter_api5utils10validation10web_search5testss_30test_estimate_query_complexity
FN:348,_RNvNtNtNtNtCsgYtBEIaUujk_14openrouter_api5utils10validation10web_search5testss_36test_validate_results_for_complexity
FN:250,_RNvNtNtNtNtCsgYtBEIaUujk_14openrouter_api5utils10validation10web_search5testss_38test_validate_web_search_request_valid
FN:270,_RNvNtNtNtNtCsgYtBEIaUujk_14openrouter_api5utils10validation10web_search5testss_41test_validate_web_search_request_too_long
FN:364,_RNvNtNtNtNtCsgYtBEIaUujk_14openrouter_api5utils10validation10web_search5testss_43test_validate_and_suggest_query_improvement
FN:256,_RNvNtNtNtNtCsgYtBEIaUujk_14openrouter_api5utils10validation10web_search5testss_44test_validate_web_search_request_empty_query
FN:291,_RNvNtNtNtNtCsgYtBEIaUujk_14openrouter_api5utils10validation10web_search5testss_44test_validate_web_search_request_script_tags
FN:312,_RNvNtNtNtNtCsgYtBEIaUujk_14openrouter_api5utils10validation10web_search5testss_45test_validate_web_search_request_zero_results
FN:298,_RNvNtNtNtNtCsgYtBEIaUujk_14openrouter_api5utils10validation10web_search5testss_46test_validate_web_search_request_valid_results
FN:277,_RNvNtNtNtNtCsgYtBEIaUujk_14openrouter_api5utils10validation10web_search5testss_48test_validate_web_search_request_no_alphanumeric
FN:305,_RNvNtNtNtNtCsgYtBEIaUujk_14openrouter_api5utils10validation10web_search5testss_49test_validate_web_search_request_too_many_results
FN:263,_RNvNtNtNtNtCsgYtBEIaUujk_14openrouter_api5utils10validation10web_search5testss_49test_validate_web_search_request_whitespace_query
FN:284,_RNvNtNtNtNtCsgYtBEIaUujk_14openrouter_api5utils10validation10web_search5testss_53test_validate_web_search_request_javascript_injection
FNDA:0,_RNCNvNtNtNtCsgl6iEIT30H0_14openrouter_api5utils10validation10web_search22validate_query_content0B9_
FNDA:0,_RNCNvNtNtNtCsgl6iEIT30H0_14openrouter_api5utils10validation10web_search38validate_and_suggest_query_improvement0B9_
FNDA:62,_RNvNtNtNtCsgYtBEIaUujk_14openrouter_api5utils10validation10web_search21validate_query_safety
FNDA:68,_RNvNtNtNtCsgYtBEIaUujk_14openrouter_api5utils10validation10web_search22validate_query_content
FNDA:53,_RNvNtNtNtCsgYtBEIaUujk_14openrouter_api5utils10validation10web_search24has_excessive_repetition
FNDA:51,_RNvNtNtNtCsgYtBEIaUujk_14openrouter_api5utils10validation10web_search24looks_like_url_injection
FNDA:24,_RNvNtNtNtCsgYtBEIaUujk_14openrouter_api5utils10validation10web_search25estimate_query_complexity
FNDA:76,_RNvNtNtNtCsgYtBEIaUujk_14openrouter_api5utils10validation10web_search27validate_web_search_request
FNDA:8,_RNvNtNtNtCsgYtBEIaUujk_14openrouter_api5utils10validation10web_search31validate_results_for_complexity
FNDA:8,_RNvNtNtNtCsgYtBEIaUujk_14openrouter_api5utils10validation10web_search38validate_and_suggest_query_improvement
FNDA:103,_RNCNvNtNtNtCsgYtBEIaUujk_14openrouter_api5utils10validation10web_search22validate_query_content0B9_
FNDA:25,_RNCNvNtNtNtCsgYtBEIaUujk_14openrouter_api5utils10validation10web_search38validate_and_suggest_query_improvement0B9_
FNDA:10,_RNvNtNtNtNtCsgYtBEIaUujk_14openrouter_api5utils10validation10web_search5tests31create_valid_web_search_request
FNDA:1,_RNvNtNtNtNtCsgYtBEIaUujk_14openrouter_api5utils10validation10web_search5testss_29test_has_excessive_repetition
FNDA:1,_RNvNtNtNtNtCsgYtBEIaUujk_14openrouter_api5utils10validation10web_search5testss_29test_looks_like_url_injection
FNDA:1,_RNvNtNtNtNtCsgYtBEIaUujk_14openrouter_api5utils10validation10web_search5testss_30test_estimate_query_complexity
FNDA:1,_RNvNtNtNtNtCsgYtBEIaUujk_14openrouter_api5utils10validation10web_search5testss_36test_validate_results_for_complexity
FNDA:1,_RNvNtNtNtNtCsgYtBEIaUujk_14openrouter_api5utils10validation10web_search5testss_38test_validate_web_search_request_valid
FNDA:1,_RNvNtNtNtNtCsgYtBEIaUujk_14openrouter_api5utils10validation10web_search5testss_41test_validate_web_search_request_too_long
FNDA:1,_RNvNtNtNtNtCsgYtBEIaUujk_14openrouter_api5utils10validation10web_search5testss_43test_validate_and_suggest_query_improvement
FNDA:1,_RNvNtNtNtNtCsgYtBEIaUujk_14openrouter_api5utils10validation10web_search5testss_44test_validate_web_search_request_empty_query
FNDA:1,_RNvNtNtNtNtCsgYtBEIaUujk_14openrouter_api5utils10validation10web_search5testss_44test_validate_web_search_request_script_tags
FNDA:1,_RNvNtNtNtNtCsgYtBEIaUujk_14openrouter_api5utils10validation10web_search5testss_45test_validate_web_search_request_zero_results
FNDA:1,_RNvNtNtNtNtCsgYtBEIaUujk_14openrouter_api5utils10validation10web_search5testss_46test_validate_web_search_request_valid_results
FNDA:1,_RNvNtNtNtNtCsgYtBEIaUujk_14openrouter_api5utils10validation10web_search5testss_48test_validate_web_search_request_no_alphanumeric
FNDA:1,_RNvNtNtNtNtCsgYtBEIaUujk_14openrouter_api5utils10validation10web_search5testss_49test_validate_web_search_request_too_many_results
FNDA:1,_RNvNtNtNtNtCsgYtBEIaUujk_14openrouter_api5utils10validation10web_search5testss_49test_validate_web_search_request_whitespace_query
FNDA:1,_RNvNtNtNtNtCsgYtBEIaUujk_14openrouter_api5utils10validation10web_search5testss_53test_validate_web_search_request_javascript_injection
FNF:26
FNH:26
DA:20,76
DA:22,76
DA:23,70
DA:26,68
DA:29,40
DA:30,31
DA:31,9
DA:33,35
DA:34,76
DA:37,68
DA:38,68
DA:41,68
DA:42,0
DA:43,0
DA:44,0
DA:45,68
DA:48,103
DA:49,68
DA:50,6
DA:51,6
DA:52,6
DA:53,62
DA:56,62
DA:58,40
DA:59,68
DA:62,62
DA:64,62
DA:67,62
DA:68,62
DA:69,62
DA:70,62
DA:71,62
DA:72,62
DA:73,62
DA:74,62
DA:75,62
DA:76,62
DA:77,62
DA:78,62
DA:79,62
DA:80,62
DA:81,62
DA:82,62
DA:83,62
DA:86,775
DA:87,735
DA:88,22
DA:89,22
DA:90,22
DA:91,22
DA:92,713
DA:96,40
DA:97,0
DA:98,0
DA:99,0
DA:100,40
DA:103,40
DA:104,0
DA:105,0
DA:106,0
DA:107,40
DA:109,40
DA:110,62
DA:113,53
DA:114,53
DA:115,53
DA:116,10
DA:117,43
DA:120,43
DA:121,43
DA:123,1954
DA:124,1954
DA:125,130
DA:126,130
DA:127,1824
DA:128,1824
DA:129,1824
DA:133,43
DA:134,53
DA:137,51
DA:139,51
DA:140,51
DA:143,51
DA:144,51
DA:147,8
DA:148,8
DA:149,8
DA:150,8
DA:151,8
DA:153,8
DA:156,8
DA:157,2
DA:158,2
DA:159,6
DA:163,8
DA:164,4
DA:165,4
DA:166,25
DA:167,3
DA:168,3
DA:169,5
DA:171,8
DA:172,7
DA:173,7
DA:174,1
DA:175,1
DA:176,1
DA:177,7
DA:179,8
DA:180,8
DA:183,24
DA:184,24
DA:187,24
DA:188,8
DA:189,16
DA:192,24
DA:193,9
DA:194,15
DA:197,24
DA:198,9
DA:199,15
DA:202,24
DA:203,9
DA:204,15
DA:207,24
DA:208,6
DA:209,18
DA:211,24
DA:212,24
DA:215,8
DA:216,8
DA:218,8
DA:220,8
DA:221,8
DA:222,4
DA:223,3
DA:224,3
DA:227,8
DA:228,3
DA:229,3
DA:230,3
DA:231,3
DA:232,5
DA:233,0
DA:235,5
DA:236,8
DA:242,10
DA:243,10
DA:244,10
DA:245,10
DA:246,10
DA:247,10
DA:250,1
DA:251,1
DA:252,1
DA:253,1
DA:256,1
DA:257,1
DA:258,1
DA:259,1
DA:260,1
DA:263,1
DA:264,1
DA:265,1
DA:266,1
DA:267,1
DA:270,1
DA:271,1
DA:272,1
DA:273,1
DA:274,1
DA:277,1
DA:278,1
DA:279,1
DA:280,1
DA:281,1
DA:284,1
DA:285,1
DA:286,1
DA:287,1
DA:288,1
DA:291,1
DA:292,1
DA:293,1
DA:294,1
DA:295,1
DA:298,1
DA:299,1
DA:300,1
DA:301,1
DA:302,1
DA:305,1
DA:306,1
DA:307,1
DA:308,1
DA:309,1
DA:312,1
DA:313,1
DA:314,1
DA:315,1
DA:316,1
DA:319,1
DA:320,1
DA:321,1
DA:322,1
DA:323,1
DA:326,1
DA:327,1
DA:328,1
DA:329,1
DA:331,1
DA:334,1
DA:335,1
DA:336,1
DA:337,1
DA:338,1
DA:342,1
DA:343,1
DA:344,1
DA:345,1
DA:348,1
DA:349,1
DA:350,1
DA:351,1
DA:352,1
DA:353,1
DA:355,1
DA:356,1
DA:357,1
DA:358,1
DA:359,1
DA:360,1
DA:361,1
DA:364,1
DA:365,1
DA:366,1
DA:368,1
DA:369,1
DA:371,1
DA:372,1
DA:373,1
BRF:0
BRH:0
LF:243
LH:233
end_of_record
SF:/Volumes/Everything/Development/openrouter_api/src/utils/validation/web_search_tests.rs
FN:343,_RNCNvNtNtNtNtCsgYtBEIaUujk_14openrouter_api5utils10validation16web_search_tests5testss_43test_validate_and_suggest_query_improvement0Bb_
FN:353,_RNCNvNtNtNtNtCsgYtBEIaUujk_14openrouter_api5utils10validation16web_search_tests5testss_43test_validate_and_suggest_query_improvements0_0Bb_
FN:348,_RNCNvNtNtNtNtCsgYtBEIaUujk_14openrouter_api5utils10validation16web_search_tests5testss_43test_validate_and_suggest_query_improvements_0Bb_
FN:14,_RNvNtNtNtNtCsgYtBEIaUujk_14openrouter_api5utils10validation16web_search_tests5tests31create_valid_web_search_request
FN:217,_RNvNtNtNtNtCsgYtBEIaUujk_14openrouter_api5utils10validation16web_search_tests5testss_29test_has_excessive_repetition
FN:243,_RNvNtNtNtNtCsgYtBEIaUujk_14openrouter_api5utils10validation16web_search_tests5testss_29test_looks_like_url_injection
FN:274,_RNvNtNtNtNtCsgYtBEIaUujk_14openrouter_api5utils10validation16web_search_tests5testss_30test_estimate_query_complexity
FN:299,_RNvNtNtNtNtCsgYtBEIaUujk_14openrouter_api5utils10validation16web_search_tests5testss_36test_validate_results_for_complexity
FN:22,_RNvNtNtNtNtCsgYtBEIaUujk_14openrouter_api5utils10validation16web_search_tests5testss_38test_validate_web_search_request_valid
FN:369,_RNvNtNtNtNtCsgYtBEIaUujk_14openrouter_api5utils10validation16web_search_tests5testss_40test_validate_web_search_request_unicode
FN:118,_RNvNtNtNtNtCsgYtBEIaUujk_14openrouter_api5utils10validation16web_search_tests5testss_41test_validate_web_search_request_data_uri
FN:67,_RNvNtNtNtNtCsgYtBEIaUujk_14openrouter_api5utils10validation16web_search_tests5testss_41test_validate_web_search_request_too_long
FN:339,_RNvNtNtNtNtCsgYtBEIaUujk_14openrouter_api5utils10validation16web_search_tests5testss_43test_validate_and_suggest_query_improvement
FN:386,_RNvNtNtNtNtCsgYtBEIaUujk_14openrouter_api5utils10validation16web_search_tests5testss_43test_validate_web_search_request_edge_cases
FN:210,_RNvNtNtNtNtCsgYtBEIaUujk_14openrouter_api5utils10validation16web_search_tests5testss_43test_validate_web_search_request_no_results
FN:28,_RNvNtNtNtNtCsgYtBEIaUujk_14openrouter_api5utils10validation16web_search_tests5testss_44test_validate_web_search_request_empty_query
FN:133,_RNvNtNtNtNtCsgYtBEIaUujk_14openrouter_api5utils10validation16web_search_tests5testss_44test_validate_web_search_request_script_tags
FN:203,_RNvNtNtNtNtCsgYtBEIaUujk_14openrouter_api5utils10validation16web_search_tests5testss_45test_validate_web_search_request_zero_results
FN:404,_RNvNtNtNtNtCsgYtBEIaUujk_14openrouter_api5utils10validation16web_search_tests5testss_46test_validate_web_search_request_comprehensive
FN:166,_RNvNtNtNtNtCsgYtBEIaUujk_14openrouter_api5utils10validation16web_search_tests5testss_46test_validate_web_search_request_eval_attempts
FN:182,_RNvNtNtNtNtCsgYtBEIaUujk_14openrouter_api5utils10validation16web_search_tests5testss_46test_validate_web_search_request_valid_results
FN:149,_RNvNtNtNtNtCsgYtBEIaUujk_14openrouter_api5utils10validation16web_search_tests5testss_47test_validate_web_search_request_event_handlers
FN:56,_RNvNtNtNtNtCsgYtBEIaUujk_14openrouter_api5utils10validation16web_search_tests5testss_47test_validate_web_search_request_maximum_length
FN:49,_RNvNtNtNtNtCsgYtBEIaUujk_14openrouter_api5utils10validation16web_search_tests5testss_47test_validate_web_search_request_minimum_length
FN:74,_RNvNtNtNtNtCsgYtBEIaUujk_14openrouter_api5utils10validation16web_search_tests5testss_48test_validate_web_search_request_no_alphanumeric
FN:193,_RNvNtNtNtNtCsgYtBEIaUujk_14openrouter_api5utils10validation16web_search_tests5testss_49test_validate_web_search_request_too_many_results
FN:35,_RNvNtNtNtNtCsgYtBEIaUujk_14openrouter_api5utils10validation16web_search_tests5testss_49test_validate_web_search_request_whitespace_query
FN:42,_RNvNtNtNtNtCsgYtBEIaUujk_14openrouter_api5utils10validation16web_search_tests5testss_50test_validate_web_search_request_tab_newline_query
FN:85,_RNvNtNtNtNtCsgYtBEIaUujk_14openrouter_api5utils10validation16web_search_tests5testss_50test_validate_web_search_request_with_alphanumeric
FN:102,_RNvNtNtNtNtCsgYtBEIaUujk_14openrouter_api5utils10validation16web_search_tests5testss_53test_validate_web_search_request_javascript_injection
FNDA:1,_RNCNvNtNtNtNtCsgYtBEIaUujk_14openrouter_api5utils10validation16web_search_tests5testss_43test_validate_and_suggest_query_improvement0Bb_
FNDA:1,_RNCNvNtNtNtNtCsgYtBEIaUujk_14openrouter_api5utils10validation16web_search_tests5testss_43test_validate_and_suggest_query_improvements0_0Bb_
FNDA:1,_RNCNvNtNtNtNtCsgYtBEIaUujk_14openrouter_api5utils10validation16web_search_tests5testss_43test_validate_and_suggest_query_improvements_0Bb_
FNDA:56,_RNvNtNtNtNtCsgYtBEIaUujk_14openrouter_api5utils10validation16web_search_tests5tests31create_valid_web_search_request
FNDA:1,_RNvNtNtNtNtCsgYtBEIaUujk_14openrouter_api5utils10validation16web_search_tests5testss_29test_has_excessive_repetition
FNDA:1,_RNvNtNtNtNtCsgYtBEIaUujk_14openrouter_api5utils10validation16web_search_tests5testss_29test_looks_like_url_injection
FNDA:1,_RNvNtNtNtNtCsgYtBEIaUujk_14openrouter_api5utils10validation16web_search_tests5testss_30test_estimate_query_complexity
FNDA:1,_RNvNtNtNtNtCsgYtBEIaUujk_14openrouter_api5utils10validation16web_search_tests5testss_36test_validate_results_for_complexity
FNDA:1,_RNvNtNtNtNtCsgYtBEIaUujk_14openrouter_api5utils10validation16web_search_tests5testss_38test_validate_web_search_request_valid
FNDA:1,_RNvNtNtNtNtCsgYtBEIaUujk_14openrouter_api5utils10validation16web_search_tests5testss_40test_validate_web_search_request_unicode
FNDA:1,_RNvNtNtNtNtCsgYtBEIaUujk_14openrouter_api5utils10validation16web_search_tests5testss_41test_validate_web_search_request_data_uri
FNDA:1,_RNvNtNtNtNtCsgYtBEIaUujk_14openrouter_api5utils10validation16web_search_tests5testss_41test_validate_web_search_request_too_long
FNDA:1,_RNvNtNtNtNtCsgYtBEIaUujk_14openrouter_api5utils10validation16web_search_tests5testss_43test_validate_and_suggest_query_improvement
FNDA:1,_RNvNtNtNtNtCsgYtBEIaUujk_14openrouter_api5utils10validation16web_search_tests5testss_43test_validate_web_search_request_edge_cases
FNDA:1,_RNvNtNtNtNtCsgYtBEIaUujk_14openrouter_api5utils10validation16web_search_tests5testss_43test_validate_web_search_request_no_results
FNDA:1,_RNvNtNtNtNtCsgYtBEIaUujk_14openrouter_api5utils10validation16web_search_tests5testss_44test_validate_web_search_request_empty_query
FNDA:1,_RNvNtNtNtNtCsgYtBEIaUujk_14openrouter_api5utils10validation16web_search_tests5testss_44test_validate_web_search_request_script_tags
FNDA:1,_RNvNtNtNtNtCsgYtBEIaUujk_14openrouter_api5utils10validation16web_search_tests5testss_45test_validate_web_search_request_zero_results
FNDA:1,_RNvNtNtNtNtCsgYtBEIaUujk_14openrouter_api5utils10validation16web_search_tests5testss_46test_validate_web_search_request_comprehensive
FNDA:1,_RNvNtNtNtNtCsgYtBEIaUujk_14openrouter_api5utils10validation16web_search_tests5testss_46test_validate_web_search_request_eval_attempts
FNDA:1,_RNvNtNtNtNtCsgYtBEIaUujk_14openrouter_api5utils10validation16web_search_tests5testss_46test_validate_web_search_request_valid_results
FNDA:1,_RNvNtNtNtNtCsgYtBEIaUujk_14openrouter_api5utils10validation16web_search_tests5testss_47test_validate_web_search_request_event_handlers
FNDA:1,_RNvNtNtNtNtCsgYtBEIaUujk_14openrouter_api5utils10validation16web_search_tests5testss_47test_validate_web_search_request_maximum_length
FNDA:1,_RNvNtNtNtNtCsgYtBEIaUujk_14openrouter_api5utils10validation16web_search_tests5testss_47test_validate_web_search_request_minimum_length
FNDA:1,_RNvNtNtNtNtCsgYtBEIaUujk_14openrouter_api5utils10validation16web_search_tests5testss_48test_validate_web_search_request_no_alphanumeric
FNDA:1,_RNvNtNtNtNtCsgYtBEIaUujk_14openrouter_api5utils10validation16web_search_tests5testss_49test_validate_web_search_request_too_many_results
FNDA:1,_RNvNtNtNtNtCsgYtBEIaUujk_14openrouter_api5utils10validation16web_search_tests5testss_49test_validate_web_search_request_whitespace_query
FNDA:1,_RNvNtNtNtNtCsgYtBEIaUujk_14openrouter_api5utils10validation16web_search_tests5testss_50test_validate_web_search_request_tab_newline_query
FNDA:1,_RNvNtNtNtNtCsgYtBEIaUujk_14openrouter_api5utils10validation16web_search_tests5testss_50test_validate_web_search_request_with_alphanumeric
FNDA:1,_RNvNtNtNtNtCsgYtBEIaUujk_14openrouter_api5utils10validation16web_search_tests5testss_53test_validate_web_search_request_javascript_injection
FNF:30
FNH:30
DA:14,56
DA:15,56
DA:16,56
DA:17,56
DA:18,56
DA:19,56
DA:22,1
DA:23,1
DA:24,1
DA:25,1
DA:28,1
DA:29,1
DA:30,1
DA:31,1
DA:32,1
DA:35,1
DA:36,1
DA:37,1
DA:38,1
DA:39,1
DA:42,1
DA:43,1
DA:44,1
DA:45,1
DA:46,1
DA:49,1
DA:50,1
DA:51,1
DA:52,1
DA:53,1
DA:56,1
DA:57,1
DA:59,1
DA:60,1
DA:61,1
DA:62,1
DA:63,1
DA:64,1
DA:67,1
DA:68,1
DA:69,1
DA:70,1
DA:71,1
DA:74,1
DA:75,1
DA:77,7
DA:78,6
DA:79,6
DA:80,6
DA:82,1
DA:85,1
DA:86,1
DA:87,1
DA:88,1
DA:89,1
DA:90,1
DA:91,1
DA:92,1
DA:94,6
DA:95,5
DA:96,5
DA:97,5
DA:99,1
DA:102,1
DA:103,1
DA:104,1
DA:105,1
DA:106,1
DA:107,1
DA:108,1
DA:110,5
DA:111,4
DA:112,4
DA:113,4
DA:115,1
DA:118,1
DA:119,1
DA:120,1
DA:121,1
DA:122,1
DA:123,1
DA:125,4
DA:126,3
DA:127,3
DA:128,3
DA:130,1
DA:133,1
DA:134,1
DA:135,1
DA:136,1
DA:137,1
DA:138,1
DA:139,1
DA:141,5
DA:142,4
DA:143,4
DA:144,4
DA:146,1
DA:149,1
DA:150,1
DA:151,1
DA:152,1
DA:153,1
DA:154,1
DA:155,1
DA:156,1
DA:158,6
DA:159,5
DA:160,5
DA:161,5
DA:163,1
DA:166,1
DA:167,1
DA:168,1
DA:169,1
DA:170,1
DA:171,1
DA:172,1
DA:174,5
DA:175,4
DA:176,4
DA:177,4
DA:179,1
DA:182,1
DA:183,1
DA:185,7
DA:186,6
DA:187,6
DA:188,6
DA:190,1
DA:193,1
DA:194,1
DA:195,1
DA:196,1
DA:198,1
DA:199,1
DA:200,1
DA:203,1
DA:204,1
DA:205,1
DA:206,1
DA:207,1
DA:210,1
DA:211,1
DA:212,1
DA:213,1
DA:214,1
DA:217,1
DA:218,1
DA:219,1
DA:220,1
DA:221,1
DA:222,1
DA:223,1
DA:224,1
DA:225,1
DA:226,1
DA:227,1
DA:228,1
DA:229,1
DA:231,11
DA:232,10
DA:233,10
DA:235,0
DA:240,1
DA:243,1
DA:244,1
DA:245,1
DA:246,1
DA:247,1
DA:248,1
DA:249,1
DA:250,1
DA:251,1
DA:252,1
DA:253,1
DA:254,1
DA:255,1
DA:256,1
DA:257,1
DA:258,1
DA:259,1
DA:260,1
DA:262,10
DA:263,9
DA:264,9
DA:266,0
DA:271,1
DA:274,1
DA:275,1
DA:276,1
DA:277,1
DA:278,1
DA:279,1
DA:280,1
DA:281,1
DA:282,1
DA:283,1
DA:284,1
DA:285,1
DA:286,1
DA:288,11
DA:289,10
DA:290,10
DA:292,0
DA:296,1
DA:299,1
DA:301,1
DA:302,1
DA:303,1
DA:304,1
DA:305,1
DA:308,1
DA:309,1
DA:310,1
DA:311,1
DA:312,1
DA:315,1
DA:316,1
DA:317,1
DA:318,1
DA:319,1
DA:322,1
DA:323,1
DA:324,1
DA:325,1
DA:326,1
DA:327,1
DA:330,1
DA:331,1
DA:332,1
DA:333,1
DA:334,1
DA:335,1
DA:336,1
DA:339,1
DA:341,1
DA:342,1
DA:343,1
DA:346,1
DA:347,1
DA:348,1
DA:351,1
DA:352,1
DA:353,1
DA:356,1
DA:357,1
DA:359,1
DA:360,1
DA:363,1
DA:364,1
DA:365,1
DA:366,1
DA:369,1
DA:370,1
DA:371,1
DA:372,1
DA:373,1
DA:374,1
DA:375,1
DA:376,1
DA:378,6
DA:379,5
DA:380,5
DA:381,5
DA:383,1
DA:386,1
DA:388,1
DA:389,1
DA:390,1
DA:393,1
DA:394,1
DA:395,1
DA:398,1
DA:399,1
DA:400,1
DA:401,1
DA:404,1
DA:405,1
DA:406,1
DA:407,1
DA:409,1
DA:412,1
DA:415,1
DA:416,1
DA:417,1
BRF:0
BRH:0
LF:289
LH:286
end_of_record